ARM GAS  C:\Users\student\AppData\Local\Temp\ccHj2j2l.s 			page 1


   1              		.syntax unified
   2              		.cpu cortex-m3
   3              		.fpu softvfp
   4              		.eabi_attribute 20, 1
   5              		.eabi_attribute 21, 1
   6              		.eabi_attribute 23, 3
   7              		.eabi_attribute 24, 1
   8              		.eabi_attribute 25, 1
   9              		.eabi_attribute 26, 1
  10              		.eabi_attribute 30, 1
  11              		.eabi_attribute 34, 1
  12              		.eabi_attribute 18, 4
  13              		.thumb
  14              		.file	"BPM_ADC.c"
  15              		.text
  16              	.Ltext0:
  17              		.cfi_sections	.debug_frame
  18              		.section	.text.BPM_ADC_GainCompensation,"ax",%progbits
  19              		.align	2
  20              		.thumb
  21              		.thumb_func
  22              		.type	BPM_ADC_GainCompensation, %function
  23              	BPM_ADC_GainCompensation:
  24              	.LFB21:
  25              		.file 1 ".\\Generated_Source\\PSoC5\\BPM_ADC.c"
   1:.\Generated_Source\PSoC5/BPM_ADC.c **** /*******************************************************************************
   2:.\Generated_Source\PSoC5/BPM_ADC.c **** * File Name: BPM_ADC.c
   3:.\Generated_Source\PSoC5/BPM_ADC.c **** * Version 3.20
   4:.\Generated_Source\PSoC5/BPM_ADC.c **** *
   5:.\Generated_Source\PSoC5/BPM_ADC.c **** * Description:
   6:.\Generated_Source\PSoC5/BPM_ADC.c **** *  This file provides the source code to the API for the Delta-Sigma ADC
   7:.\Generated_Source\PSoC5/BPM_ADC.c **** *  Component.
   8:.\Generated_Source\PSoC5/BPM_ADC.c **** *
   9:.\Generated_Source\PSoC5/BPM_ADC.c **** * Note:
  10:.\Generated_Source\PSoC5/BPM_ADC.c **** *
  11:.\Generated_Source\PSoC5/BPM_ADC.c **** ********************************************************************************
  12:.\Generated_Source\PSoC5/BPM_ADC.c **** * Copyright 2008-2015, Cypress Semiconductor Corporation.  All rights reserved.
  13:.\Generated_Source\PSoC5/BPM_ADC.c **** * You may use this file only in accordance with the license, terms, conditions,
  14:.\Generated_Source\PSoC5/BPM_ADC.c **** * disclaimers, and limitations in the end user license agreement accompanying
  15:.\Generated_Source\PSoC5/BPM_ADC.c **** * the software package with which this file was provided.
  16:.\Generated_Source\PSoC5/BPM_ADC.c **** *******************************************************************************/
  17:.\Generated_Source\PSoC5/BPM_ADC.c **** 
  18:.\Generated_Source\PSoC5/BPM_ADC.c **** #include "BPM_ADC.h"
  19:.\Generated_Source\PSoC5/BPM_ADC.c **** 
  20:.\Generated_Source\PSoC5/BPM_ADC.c **** #if(BPM_ADC_DEFAULT_INTERNAL_CLK)
  21:.\Generated_Source\PSoC5/BPM_ADC.c ****     #include "BPM_ADC_theACLK.h"
  22:.\Generated_Source\PSoC5/BPM_ADC.c **** #endif /* BPM_ADC_DEFAULT_INTERNAL_CLK */
  23:.\Generated_Source\PSoC5/BPM_ADC.c **** 
  24:.\Generated_Source\PSoC5/BPM_ADC.c **** #include "BPM_ADC_Ext_CP_Clk.h"
  25:.\Generated_Source\PSoC5/BPM_ADC.c **** 
  26:.\Generated_Source\PSoC5/BPM_ADC.c **** #if(BPM_ADC_DEFAULT_INPUT_MODE)
  27:.\Generated_Source\PSoC5/BPM_ADC.c ****     #include "BPM_ADC_AMux.h"
  28:.\Generated_Source\PSoC5/BPM_ADC.c **** #endif /* BPM_ADC_DEFAULT_INPUT_MODE */
  29:.\Generated_Source\PSoC5/BPM_ADC.c **** 
  30:.\Generated_Source\PSoC5/BPM_ADC.c **** 
  31:.\Generated_Source\PSoC5/BPM_ADC.c **** /***************************************
  32:.\Generated_Source\PSoC5/BPM_ADC.c **** * Global data allocation
ARM GAS  C:\Users\student\AppData\Local\Temp\ccHj2j2l.s 			page 2


  33:.\Generated_Source\PSoC5/BPM_ADC.c **** ***************************************/
  34:.\Generated_Source\PSoC5/BPM_ADC.c **** 
  35:.\Generated_Source\PSoC5/BPM_ADC.c **** /* Software flag for checking conversion completed or not */
  36:.\Generated_Source\PSoC5/BPM_ADC.c **** volatile uint8 BPM_ADC_convDone = 0u;
  37:.\Generated_Source\PSoC5/BPM_ADC.c **** 
  38:.\Generated_Source\PSoC5/BPM_ADC.c **** /* Software flag to stop conversion for single sample conversion mode
  39:.\Generated_Source\PSoC5/BPM_ADC.c **** *   with resolution above 16 bits 
  40:.\Generated_Source\PSoC5/BPM_ADC.c **** */
  41:.\Generated_Source\PSoC5/BPM_ADC.c **** volatile uint8 BPM_ADC_stopConversion = 0u;
  42:.\Generated_Source\PSoC5/BPM_ADC.c **** 
  43:.\Generated_Source\PSoC5/BPM_ADC.c **** /* To run the initialization block only at the start up */
  44:.\Generated_Source\PSoC5/BPM_ADC.c **** uint8 BPM_ADC_initVar = 0u;
  45:.\Generated_Source\PSoC5/BPM_ADC.c **** 
  46:.\Generated_Source\PSoC5/BPM_ADC.c **** /* To check whether ADC started or not before switching the configuration */
  47:.\Generated_Source\PSoC5/BPM_ADC.c **** volatile uint8 BPM_ADC_started = 0u;
  48:.\Generated_Source\PSoC5/BPM_ADC.c **** 
  49:.\Generated_Source\PSoC5/BPM_ADC.c **** /* Flag to hold ADC config number. By default active config is 1. */
  50:.\Generated_Source\PSoC5/BPM_ADC.c **** volatile uint8 BPM_ADC_Config = 1u;
  51:.\Generated_Source\PSoC5/BPM_ADC.c **** 
  52:.\Generated_Source\PSoC5/BPM_ADC.c **** volatile int32 BPM_ADC_Offset;
  53:.\Generated_Source\PSoC5/BPM_ADC.c **** volatile int32 BPM_ADC_CountsPerVolt;
  54:.\Generated_Source\PSoC5/BPM_ADC.c **** 
  55:.\Generated_Source\PSoC5/BPM_ADC.c **** 
  56:.\Generated_Source\PSoC5/BPM_ADC.c **** /***************************************
  57:.\Generated_Source\PSoC5/BPM_ADC.c **** * Local data allocation
  58:.\Generated_Source\PSoC5/BPM_ADC.c **** ***************************************/
  59:.\Generated_Source\PSoC5/BPM_ADC.c **** 
  60:.\Generated_Source\PSoC5/BPM_ADC.c **** /* The array with precalculated gain compensation coefficients */
  61:.\Generated_Source\PSoC5/BPM_ADC.c **** static BPM_ADC_GCOR_STRUCT BPM_ADC_gcor[BPM_ADC_DEFAULT_NUM_CONFIGS];
  62:.\Generated_Source\PSoC5/BPM_ADC.c **** 
  63:.\Generated_Source\PSoC5/BPM_ADC.c **** 
  64:.\Generated_Source\PSoC5/BPM_ADC.c **** 
  65:.\Generated_Source\PSoC5/BPM_ADC.c **** /***************************************
  66:.\Generated_Source\PSoC5/BPM_ADC.c **** * Forward function references
  67:.\Generated_Source\PSoC5/BPM_ADC.c **** ***************************************/
  68:.\Generated_Source\PSoC5/BPM_ADC.c **** static void BPM_ADC_InitConfig(uint8 config) ;
  69:.\Generated_Source\PSoC5/BPM_ADC.c **** static void BPM_ADC_GainCompensation(uint8 inputRange, uint16 idealDecGain, uint16 idealOddDecGain,
  70:.\Generated_Source\PSoC5/BPM_ADC.c ****                             uint8 resolution, uint8 config) ;
  71:.\Generated_Source\PSoC5/BPM_ADC.c **** static void BPM_ADC_SetDSMRef0Reg(uint8 value) ;
  72:.\Generated_Source\PSoC5/BPM_ADC.c **** 
  73:.\Generated_Source\PSoC5/BPM_ADC.c **** 
  74:.\Generated_Source\PSoC5/BPM_ADC.c **** /******************************************************************************
  75:.\Generated_Source\PSoC5/BPM_ADC.c **** * Function Name: BPM_ADC_Init
  76:.\Generated_Source\PSoC5/BPM_ADC.c **** *******************************************************************************
  77:.\Generated_Source\PSoC5/BPM_ADC.c **** *
  78:.\Generated_Source\PSoC5/BPM_ADC.c **** * Summary:
  79:.\Generated_Source\PSoC5/BPM_ADC.c **** *  Initialize component's parameters to the parameters set by user in the
  80:.\Generated_Source\PSoC5/BPM_ADC.c **** *  customizer of the component placed onto schematic. Usually called in
  81:.\Generated_Source\PSoC5/BPM_ADC.c **** * BPM_ADC_Start().
  82:.\Generated_Source\PSoC5/BPM_ADC.c **** *
  83:.\Generated_Source\PSoC5/BPM_ADC.c **** *
  84:.\Generated_Source\PSoC5/BPM_ADC.c **** * Parameters:
  85:.\Generated_Source\PSoC5/BPM_ADC.c **** *  None
  86:.\Generated_Source\PSoC5/BPM_ADC.c **** *
  87:.\Generated_Source\PSoC5/BPM_ADC.c **** * Return:
  88:.\Generated_Source\PSoC5/BPM_ADC.c **** *  None
  89:.\Generated_Source\PSoC5/BPM_ADC.c **** *
ARM GAS  C:\Users\student\AppData\Local\Temp\ccHj2j2l.s 			page 3


  90:.\Generated_Source\PSoC5/BPM_ADC.c **** *******************************************************************************/
  91:.\Generated_Source\PSoC5/BPM_ADC.c **** void BPM_ADC_Init(void) 
  92:.\Generated_Source\PSoC5/BPM_ADC.c **** {
  93:.\Generated_Source\PSoC5/BPM_ADC.c **** 
  94:.\Generated_Source\PSoC5/BPM_ADC.c ****     BPM_ADC_Config = 1u;
  95:.\Generated_Source\PSoC5/BPM_ADC.c ****     BPM_ADC_convDone = 0u;
  96:.\Generated_Source\PSoC5/BPM_ADC.c **** 
  97:.\Generated_Source\PSoC5/BPM_ADC.c ****     BPM_ADC_Ext_CP_Clk_SetMode(CYCLK_DUTY);
  98:.\Generated_Source\PSoC5/BPM_ADC.c **** 
  99:.\Generated_Source\PSoC5/BPM_ADC.c ****     /* This is only valid if there is an internal clock */
 100:.\Generated_Source\PSoC5/BPM_ADC.c ****     #if(BPM_ADC_DEFAULT_INTERNAL_CLK)
 101:.\Generated_Source\PSoC5/BPM_ADC.c ****         BPM_ADC_theACLK_SetMode(CYCLK_DUTY);
 102:.\Generated_Source\PSoC5/BPM_ADC.c ****     #endif /* BPM_ADC_DEFAULT_INTERNAL_CLK */
 103:.\Generated_Source\PSoC5/BPM_ADC.c **** 
 104:.\Generated_Source\PSoC5/BPM_ADC.c ****     #if(BPM_ADC_IRQ_REMOVE == 0u)
 105:.\Generated_Source\PSoC5/BPM_ADC.c ****         /* Set interrupt priority */
 106:.\Generated_Source\PSoC5/BPM_ADC.c ****         CyIntSetPriority(BPM_ADC_INTC_NUMBER, BPM_ADC_INTC_PRIOR_NUMBER);
 107:.\Generated_Source\PSoC5/BPM_ADC.c ****     #endif   /* End BPM_ADC_IRQ_REMOVE */
 108:.\Generated_Source\PSoC5/BPM_ADC.c **** 
 109:.\Generated_Source\PSoC5/BPM_ADC.c ****     /* Init static registers with common configuration */
 110:.\Generated_Source\PSoC5/BPM_ADC.c ****     BPM_ADC_DSM_DEM0_REG    = BPM_ADC_CFG1_DSM_DEM0;
 111:.\Generated_Source\PSoC5/BPM_ADC.c ****     BPM_ADC_DSM_DEM1_REG    = BPM_ADC_CFG1_DSM_DEM1;
 112:.\Generated_Source\PSoC5/BPM_ADC.c ****     BPM_ADC_DSM_MISC_REG    = BPM_ADC_CFG1_DSM_MISC;
 113:.\Generated_Source\PSoC5/BPM_ADC.c ****     BPM_ADC_DSM_CLK_REG    |= BPM_ADC_CFG1_DSM_CLK;
 114:.\Generated_Source\PSoC5/BPM_ADC.c ****     BPM_ADC_DSM_REF1_REG    = BPM_ADC_CFG1_DSM_REF1;
 115:.\Generated_Source\PSoC5/BPM_ADC.c **** 
 116:.\Generated_Source\PSoC5/BPM_ADC.c ****     BPM_ADC_DSM_OUT0_REG    = BPM_ADC_CFG1_DSM_OUT0;
 117:.\Generated_Source\PSoC5/BPM_ADC.c ****     BPM_ADC_DSM_OUT1_REG    = BPM_ADC_CFG1_DSM_OUT1;
 118:.\Generated_Source\PSoC5/BPM_ADC.c **** 
 119:.\Generated_Source\PSoC5/BPM_ADC.c ****     BPM_ADC_DSM_CR0_REG     = BPM_ADC_CFG1_DSM_CR0;
 120:.\Generated_Source\PSoC5/BPM_ADC.c ****     BPM_ADC_DSM_CR1_REG     = BPM_ADC_CFG1_DSM_CR1;
 121:.\Generated_Source\PSoC5/BPM_ADC.c **** #if(BPM_ADC_MI_ENABLE != 0u) /* Enable Modulator Input */
 122:.\Generated_Source\PSoC5/BPM_ADC.c ****     BPM_ADC_DSM_CR3_REG     |= BPM_ADC_DSM_MODBIT_EN;
 123:.\Generated_Source\PSoC5/BPM_ADC.c **** #else
 124:.\Generated_Source\PSoC5/BPM_ADC.c ****     BPM_ADC_DSM_CR3_REG     = BPM_ADC_CFG1_DSM_CR3;
 125:.\Generated_Source\PSoC5/BPM_ADC.c **** #endif /* BPM_ADC_MI_ENABLE != 0u*/    
 126:.\Generated_Source\PSoC5/BPM_ADC.c ****     BPM_ADC_DSM_CR8_REG     = BPM_ADC_CFG1_DSM_CR8;
 127:.\Generated_Source\PSoC5/BPM_ADC.c ****     BPM_ADC_DSM_CR9_REG     = BPM_ADC_CFG1_DSM_CR9;
 128:.\Generated_Source\PSoC5/BPM_ADC.c ****     BPM_ADC_DSM_CR13_REG    = BPM_ADC_CFG1_DSM_CR13;
 129:.\Generated_Source\PSoC5/BPM_ADC.c **** 
 130:.\Generated_Source\PSoC5/BPM_ADC.c ****     BPM_ADC_DEC_SR_REG      = BPM_ADC_CFG1_DEC_SR;
 131:.\Generated_Source\PSoC5/BPM_ADC.c **** 
 132:.\Generated_Source\PSoC5/BPM_ADC.c ****     /* Calculate Gain compensation coefficients for all configurations */
 133:.\Generated_Source\PSoC5/BPM_ADC.c ****     BPM_ADC_GainCompensation(BPM_ADC_CFG1_INPUT_RANGE,
 134:.\Generated_Source\PSoC5/BPM_ADC.c ****                                       BPM_ADC_CFG1_IDEAL_DEC_GAIN,
 135:.\Generated_Source\PSoC5/BPM_ADC.c ****                                       BPM_ADC_CFG1_IDEAL_ODDDEC_GAIN,
 136:.\Generated_Source\PSoC5/BPM_ADC.c ****                                       BPM_ADC_CFG1_RESOLUTION,
 137:.\Generated_Source\PSoC5/BPM_ADC.c ****                                       BPM_ADC_CFG1);
 138:.\Generated_Source\PSoC5/BPM_ADC.c ****     #if(BPM_ADC_DEFAULT_NUM_CONFIGS > 1)
 139:.\Generated_Source\PSoC5/BPM_ADC.c ****         BPM_ADC_GainCompensation(BPM_ADC_CFG2_INPUT_RANGE,
 140:.\Generated_Source\PSoC5/BPM_ADC.c ****                                           BPM_ADC_CFG2_IDEAL_DEC_GAIN,
 141:.\Generated_Source\PSoC5/BPM_ADC.c ****                                           BPM_ADC_CFG2_IDEAL_ODDDEC_GAIN,
 142:.\Generated_Source\PSoC5/BPM_ADC.c ****                                           BPM_ADC_CFG2_RESOLUTION,
 143:.\Generated_Source\PSoC5/BPM_ADC.c ****                                           BPM_ADC_CFG2);
 144:.\Generated_Source\PSoC5/BPM_ADC.c ****     #endif /* BPM_ADC_DEFAULT_NUM_CONFIGS > 1 */
 145:.\Generated_Source\PSoC5/BPM_ADC.c ****     #if(BPM_ADC_DEFAULT_NUM_CONFIGS > 2)
 146:.\Generated_Source\PSoC5/BPM_ADC.c ****         BPM_ADC_GainCompensation(BPM_ADC_CFG3_INPUT_RANGE,
ARM GAS  C:\Users\student\AppData\Local\Temp\ccHj2j2l.s 			page 4


 147:.\Generated_Source\PSoC5/BPM_ADC.c ****                                           BPM_ADC_CFG3_IDEAL_DEC_GAIN,
 148:.\Generated_Source\PSoC5/BPM_ADC.c ****                                           BPM_ADC_CFG3_IDEAL_ODDDEC_GAIN,
 149:.\Generated_Source\PSoC5/BPM_ADC.c ****                                           BPM_ADC_CFG3_RESOLUTION,
 150:.\Generated_Source\PSoC5/BPM_ADC.c ****                                           BPM_ADC_CFG3);
 151:.\Generated_Source\PSoC5/BPM_ADC.c ****     #endif /* BPM_ADC_DEFAULT_NUM_CONFIGS > 2 */
 152:.\Generated_Source\PSoC5/BPM_ADC.c ****     #if(BPM_ADC_DEFAULT_NUM_CONFIGS > 3)
 153:.\Generated_Source\PSoC5/BPM_ADC.c ****         BPM_ADC_GainCompensation(BPM_ADC_CFG4_INPUT_RANGE,
 154:.\Generated_Source\PSoC5/BPM_ADC.c ****                                           BPM_ADC_CFG4_IDEAL_DEC_GAIN,
 155:.\Generated_Source\PSoC5/BPM_ADC.c ****                                           BPM_ADC_CFG4_IDEAL_ODDDEC_GAIN,
 156:.\Generated_Source\PSoC5/BPM_ADC.c ****                                           BPM_ADC_CFG4_RESOLUTION,
 157:.\Generated_Source\PSoC5/BPM_ADC.c ****                                           BPM_ADC_CFG4);
 158:.\Generated_Source\PSoC5/BPM_ADC.c ****     #endif /* BPM_ADC_DEFAULT_NUM_CONFIGS > 3 */
 159:.\Generated_Source\PSoC5/BPM_ADC.c **** 
 160:.\Generated_Source\PSoC5/BPM_ADC.c ****     /* Set GCOR register for config1 */
 161:.\Generated_Source\PSoC5/BPM_ADC.c ****     BPM_ADC_DEC_GVAL_REG = BPM_ADC_gcor[BPM_ADC_Config - 1u].gval;
 162:.\Generated_Source\PSoC5/BPM_ADC.c ****     CY_SET_REG16(BPM_ADC_DEC_GCOR_16B_PTR, BPM_ADC_gcor[BPM_ADC_Config - 1u].gcor);
 163:.\Generated_Source\PSoC5/BPM_ADC.c **** 
 164:.\Generated_Source\PSoC5/BPM_ADC.c ****     /* Initialize the registers with default customizer settings for config1 */
 165:.\Generated_Source\PSoC5/BPM_ADC.c ****     BPM_ADC_InitConfig(BPM_ADC_Config);
 166:.\Generated_Source\PSoC5/BPM_ADC.c **** }
 167:.\Generated_Source\PSoC5/BPM_ADC.c **** 
 168:.\Generated_Source\PSoC5/BPM_ADC.c **** 
 169:.\Generated_Source\PSoC5/BPM_ADC.c **** /******************************************************************************
 170:.\Generated_Source\PSoC5/BPM_ADC.c **** * Function Name: BPM_ADC_Enable
 171:.\Generated_Source\PSoC5/BPM_ADC.c **** *******************************************************************************
 172:.\Generated_Source\PSoC5/BPM_ADC.c **** *
 173:.\Generated_Source\PSoC5/BPM_ADC.c **** * Summary:
 174:.\Generated_Source\PSoC5/BPM_ADC.c **** *  Enables the ADC DelSig block operation.
 175:.\Generated_Source\PSoC5/BPM_ADC.c **** *
 176:.\Generated_Source\PSoC5/BPM_ADC.c **** *
 177:.\Generated_Source\PSoC5/BPM_ADC.c **** * Parameters:
 178:.\Generated_Source\PSoC5/BPM_ADC.c **** *  None
 179:.\Generated_Source\PSoC5/BPM_ADC.c **** *
 180:.\Generated_Source\PSoC5/BPM_ADC.c **** * Return:
 181:.\Generated_Source\PSoC5/BPM_ADC.c **** *  None
 182:.\Generated_Source\PSoC5/BPM_ADC.c **** *
 183:.\Generated_Source\PSoC5/BPM_ADC.c **** *******************************************************************************/
 184:.\Generated_Source\PSoC5/BPM_ADC.c **** void BPM_ADC_Enable(void) 
 185:.\Generated_Source\PSoC5/BPM_ADC.c **** {
 186:.\Generated_Source\PSoC5/BPM_ADC.c **** 	uint8 config;
 187:.\Generated_Source\PSoC5/BPM_ADC.c ****     uint8 enableInterrupts;
 188:.\Generated_Source\PSoC5/BPM_ADC.c ****     enableInterrupts = CyEnterCriticalSection();
 189:.\Generated_Source\PSoC5/BPM_ADC.c **** 
 190:.\Generated_Source\PSoC5/BPM_ADC.c ****     /* Read volatile variable to the local variable */
 191:.\Generated_Source\PSoC5/BPM_ADC.c ****     config = BPM_ADC_Config;
 192:.\Generated_Source\PSoC5/BPM_ADC.c ****     
 193:.\Generated_Source\PSoC5/BPM_ADC.c ****     /* Enable active mode power for ADC */
 194:.\Generated_Source\PSoC5/BPM_ADC.c ****     BPM_ADC_PWRMGR_DEC_REG |= BPM_ADC_ACT_PWR_DEC_EN;
 195:.\Generated_Source\PSoC5/BPM_ADC.c ****     BPM_ADC_PWRMGR_DSM_REG |= BPM_ADC_ACT_PWR_DSM_EN;
 196:.\Generated_Source\PSoC5/BPM_ADC.c **** 
 197:.\Generated_Source\PSoC5/BPM_ADC.c ****      /* Enable alternative active mode power for ADC */
 198:.\Generated_Source\PSoC5/BPM_ADC.c ****     BPM_ADC_STBY_PWRMGR_DEC_REG |= BPM_ADC_STBY_PWR_DEC_EN;
 199:.\Generated_Source\PSoC5/BPM_ADC.c ****     BPM_ADC_STBY_PWRMGR_DSM_REG |= BPM_ADC_STBY_PWR_DSM_EN;
 200:.\Generated_Source\PSoC5/BPM_ADC.c **** 
 201:.\Generated_Source\PSoC5/BPM_ADC.c ****     /* Disable PRES, Enable power to VCMBUF0, REFBUF0 and REFBUF1, enable PRES */
 202:.\Generated_Source\PSoC5/BPM_ADC.c ****     BPM_ADC_RESET_CR4_REG |= BPM_ADC_IGNORE_PRESA1;
 203:.\Generated_Source\PSoC5/BPM_ADC.c ****     BPM_ADC_RESET_CR5_REG |= BPM_ADC_IGNORE_PRESA2;
ARM GAS  C:\Users\student\AppData\Local\Temp\ccHj2j2l.s 			page 5


 204:.\Generated_Source\PSoC5/BPM_ADC.c **** 
 205:.\Generated_Source\PSoC5/BPM_ADC.c ****     BPM_ADC_DSM_CR17_REG |= (BPM_ADC_DSM_EN_BUF_VREF | BPM_ADC_DSM_EN_BUF_VCM);
 206:.\Generated_Source\PSoC5/BPM_ADC.c **** 
 207:.\Generated_Source\PSoC5/BPM_ADC.c ****     /* Code to disable the REFBUF0 if reference chosen is External ref */
 208:.\Generated_Source\PSoC5/BPM_ADC.c ****     #if (((BPM_ADC_CFG1_REFERENCE == BPM_ADC_EXT_REF_ON_P03) || \
 209:.\Generated_Source\PSoC5/BPM_ADC.c ****           (BPM_ADC_CFG1_REFERENCE == BPM_ADC_EXT_REF_ON_P32)) || \
 210:.\Generated_Source\PSoC5/BPM_ADC.c ****          ((BPM_ADC_DEFAULT_NUM_CONFIGS > 1) && \
 211:.\Generated_Source\PSoC5/BPM_ADC.c ****           ((BPM_ADC_CFG2_REFERENCE == BPM_ADC_EXT_REF_ON_P03) ||  \
 212:.\Generated_Source\PSoC5/BPM_ADC.c ****            (BPM_ADC_CFG2_REFERENCE == BPM_ADC_EXT_REF_ON_P32))) || \
 213:.\Generated_Source\PSoC5/BPM_ADC.c ****          ((BPM_ADC_DEFAULT_NUM_CONFIGS > 2) && \
 214:.\Generated_Source\PSoC5/BPM_ADC.c ****           ((BPM_ADC_CFG3_REFERENCE == BPM_ADC_EXT_REF_ON_P03) ||  \
 215:.\Generated_Source\PSoC5/BPM_ADC.c ****            (BPM_ADC_CFG3_REFERENCE == BPM_ADC_EXT_REF_ON_P32))) || \
 216:.\Generated_Source\PSoC5/BPM_ADC.c ****          ((BPM_ADC_DEFAULT_NUM_CONFIGS > 3) && \
 217:.\Generated_Source\PSoC5/BPM_ADC.c ****           ((BPM_ADC_CFG4_REFERENCE == BPM_ADC_EXT_REF_ON_P03) || \
 218:.\Generated_Source\PSoC5/BPM_ADC.c ****            (BPM_ADC_CFG4_REFERENCE == BPM_ADC_EXT_REF_ON_P32))))
 219:.\Generated_Source\PSoC5/BPM_ADC.c ****         if (((config == 1u) &&
 220:.\Generated_Source\PSoC5/BPM_ADC.c ****             ((BPM_ADC_CFG1_REFERENCE == BPM_ADC_EXT_REF_ON_P03) ||
 221:.\Generated_Source\PSoC5/BPM_ADC.c ****              (BPM_ADC_CFG1_REFERENCE == BPM_ADC_EXT_REF_ON_P32))) ||
 222:.\Generated_Source\PSoC5/BPM_ADC.c ****             ((config == 2u) &&
 223:.\Generated_Source\PSoC5/BPM_ADC.c ****             ((BPM_ADC_CFG2_REFERENCE == BPM_ADC_EXT_REF_ON_P03) ||
 224:.\Generated_Source\PSoC5/BPM_ADC.c ****              (BPM_ADC_CFG2_REFERENCE == BPM_ADC_EXT_REF_ON_P32))) ||
 225:.\Generated_Source\PSoC5/BPM_ADC.c ****             ((config == 3u) &&
 226:.\Generated_Source\PSoC5/BPM_ADC.c ****             ((BPM_ADC_CFG3_REFERENCE == BPM_ADC_EXT_REF_ON_P03) ||
 227:.\Generated_Source\PSoC5/BPM_ADC.c ****              (BPM_ADC_CFG3_REFERENCE == BPM_ADC_EXT_REF_ON_P32))) ||
 228:.\Generated_Source\PSoC5/BPM_ADC.c ****             ((config == 4u) &&
 229:.\Generated_Source\PSoC5/BPM_ADC.c ****             ((BPM_ADC_CFG4_REFERENCE == BPM_ADC_EXT_REF_ON_P03) ||
 230:.\Generated_Source\PSoC5/BPM_ADC.c ****              (BPM_ADC_CFG4_REFERENCE == BPM_ADC_EXT_REF_ON_P32))))
 231:.\Generated_Source\PSoC5/BPM_ADC.c ****         {
 232:.\Generated_Source\PSoC5/BPM_ADC.c ****             /* Disable the REFBUF0 */
 233:.\Generated_Source\PSoC5/BPM_ADC.c ****             BPM_ADC_DSM_CR17_REG &= (uint8)~BPM_ADC_DSM_EN_BUF_VREF;
 234:.\Generated_Source\PSoC5/BPM_ADC.c ****         }
 235:.\Generated_Source\PSoC5/BPM_ADC.c ****     #endif /* External ref */
 236:.\Generated_Source\PSoC5/BPM_ADC.c **** 
 237:.\Generated_Source\PSoC5/BPM_ADC.c ****     #if (((BPM_ADC_CFG1_INPUT_RANGE == BPM_ADC_IR_VSSA_TO_2VREF) || \
 238:.\Generated_Source\PSoC5/BPM_ADC.c ****          ((BPM_ADC_DEFAULT_NUM_CONFIGS > 1) && \
 239:.\Generated_Source\PSoC5/BPM_ADC.c ****           (BPM_ADC_CFG2_INPUT_RANGE == BPM_ADC_IR_VSSA_TO_2VREF)) || \
 240:.\Generated_Source\PSoC5/BPM_ADC.c ****          ((BPM_ADC_DEFAULT_NUM_CONFIGS > 2) && \
 241:.\Generated_Source\PSoC5/BPM_ADC.c ****           (BPM_ADC_CFG3_INPUT_RANGE == BPM_ADC_IR_VSSA_TO_2VREF)) || \
 242:.\Generated_Source\PSoC5/BPM_ADC.c ****          ((BPM_ADC_DEFAULT_NUM_CONFIGS > 3) && \
 243:.\Generated_Source\PSoC5/BPM_ADC.c ****           (BPM_ADC_CFG4_INPUT_RANGE == BPM_ADC_IR_VSSA_TO_2VREF))))
 244:.\Generated_Source\PSoC5/BPM_ADC.c ****         if(((config == 1u) &&
 245:.\Generated_Source\PSoC5/BPM_ADC.c ****             (BPM_ADC_CFG1_INPUT_RANGE == BPM_ADC_IR_VSSA_TO_2VREF) &&
 246:.\Generated_Source\PSoC5/BPM_ADC.c ****             ((BPM_ADC_CFG1_REFERENCE != BPM_ADC_EXT_REF_ON_P03) &&
 247:.\Generated_Source\PSoC5/BPM_ADC.c ****              (BPM_ADC_CFG1_REFERENCE != BPM_ADC_EXT_REF_ON_P32))) ||
 248:.\Generated_Source\PSoC5/BPM_ADC.c ****              ((config == 2u) &&
 249:.\Generated_Source\PSoC5/BPM_ADC.c ****               (BPM_ADC_CFG2_INPUT_RANGE == BPM_ADC_IR_VSSA_TO_2VREF) &&
 250:.\Generated_Source\PSoC5/BPM_ADC.c ****              ((BPM_ADC_CFG2_REFERENCE != BPM_ADC_EXT_REF_ON_P03) &&
 251:.\Generated_Source\PSoC5/BPM_ADC.c ****              (BPM_ADC_CFG2_REFERENCE != BPM_ADC_EXT_REF_ON_P32))) ||
 252:.\Generated_Source\PSoC5/BPM_ADC.c ****              ((config == 3u) &&
 253:.\Generated_Source\PSoC5/BPM_ADC.c ****               (BPM_ADC_CFG3_INPUT_RANGE == BPM_ADC_IR_VSSA_TO_2VREF) &&
 254:.\Generated_Source\PSoC5/BPM_ADC.c ****              ((BPM_ADC_CFG3_REFERENCE != BPM_ADC_EXT_REF_ON_P03) &&
 255:.\Generated_Source\PSoC5/BPM_ADC.c ****              (BPM_ADC_CFG3_REFERENCE != BPM_ADC_EXT_REF_ON_P32))) ||
 256:.\Generated_Source\PSoC5/BPM_ADC.c ****              ((config == 4u) &&
 257:.\Generated_Source\PSoC5/BPM_ADC.c ****               (BPM_ADC_CFG4_INPUT_RANGE == BPM_ADC_IR_VSSA_TO_2VREF) &&
 258:.\Generated_Source\PSoC5/BPM_ADC.c ****              ((BPM_ADC_CFG4_REFERENCE != BPM_ADC_EXT_REF_ON_P03) &&
 259:.\Generated_Source\PSoC5/BPM_ADC.c ****              (BPM_ADC_CFG4_REFERENCE != BPM_ADC_EXT_REF_ON_P32))))
 260:.\Generated_Source\PSoC5/BPM_ADC.c ****         {
ARM GAS  C:\Users\student\AppData\Local\Temp\ccHj2j2l.s 			page 6


 261:.\Generated_Source\PSoC5/BPM_ADC.c ****             /* Enable the REFBUF1 */
 262:.\Generated_Source\PSoC5/BPM_ADC.c ****             BPM_ADC_DSM_REF0_REG |= BPM_ADC_DSM_EN_BUF_VREF_INN;
 263:.\Generated_Source\PSoC5/BPM_ADC.c ****         }
 264:.\Generated_Source\PSoC5/BPM_ADC.c ****     #endif /* VSSA_TO_2VREF */
 265:.\Generated_Source\PSoC5/BPM_ADC.c ****     if(config != 0u)
 266:.\Generated_Source\PSoC5/BPM_ADC.c ****     {
 267:.\Generated_Source\PSoC5/BPM_ADC.c ****         /* Suppress compiler warning */
 268:.\Generated_Source\PSoC5/BPM_ADC.c ****     }
 269:.\Generated_Source\PSoC5/BPM_ADC.c **** 
 270:.\Generated_Source\PSoC5/BPM_ADC.c ****     /* Wait for 3 microseconds */
 271:.\Generated_Source\PSoC5/BPM_ADC.c ****     CyDelayUs(BPM_ADC_PRES_DELAY_TIME);
 272:.\Generated_Source\PSoC5/BPM_ADC.c **** 
 273:.\Generated_Source\PSoC5/BPM_ADC.c ****     /* Enable the press circuit */
 274:.\Generated_Source\PSoC5/BPM_ADC.c ****     BPM_ADC_RESET_CR4_REG &= (uint8)~BPM_ADC_IGNORE_PRESA1;
 275:.\Generated_Source\PSoC5/BPM_ADC.c ****     BPM_ADC_RESET_CR5_REG &= (uint8)~BPM_ADC_IGNORE_PRESA2;
 276:.\Generated_Source\PSoC5/BPM_ADC.c **** 
 277:.\Generated_Source\PSoC5/BPM_ADC.c ****     /* Enable negative pumps for DSM  */
 278:.\Generated_Source\PSoC5/BPM_ADC.c ****     BPM_ADC_PUMP_CR1_REG  |= ( BPM_ADC_PUMP_CR1_CLKSEL | BPM_ADC_PUMP_CR1_FORCE );
 279:.\Generated_Source\PSoC5/BPM_ADC.c **** 
 280:.\Generated_Source\PSoC5/BPM_ADC.c ****     /* Enable Modulator Chopping if required */
 281:.\Generated_Source\PSoC5/BPM_ADC.c ****     BPM_ADC_DSM_CR2_REG = BPM_ADC_CFG1_DSM_CR2;
 282:.\Generated_Source\PSoC5/BPM_ADC.c **** 
 283:.\Generated_Source\PSoC5/BPM_ADC.c ****     /* This is only valid if there is an internal clock */
 284:.\Generated_Source\PSoC5/BPM_ADC.c ****     #if(BPM_ADC_DEFAULT_INTERNAL_CLK)
 285:.\Generated_Source\PSoC5/BPM_ADC.c ****         BPM_ADC_PWRMGR_CLK_REG |= BPM_ADC_ACT_PWR_CLK_EN;
 286:.\Generated_Source\PSoC5/BPM_ADC.c ****         BPM_ADC_STBY_PWRMGR_CLK_REG |= BPM_ADC_STBY_PWR_CLK_EN;
 287:.\Generated_Source\PSoC5/BPM_ADC.c ****     #endif /* BPM_ADC_DEFAULT_INTERNAL_CLK */
 288:.\Generated_Source\PSoC5/BPM_ADC.c **** 
 289:.\Generated_Source\PSoC5/BPM_ADC.c ****     /* Enable the active and alternate active power for charge pump clock */
 290:.\Generated_Source\PSoC5/BPM_ADC.c ****     BPM_ADC_PWRMGR_CHARGE_PUMP_CLK_REG |= BPM_ADC_ACT_PWR_CHARGE_PUMP_CLK_EN;
 291:.\Generated_Source\PSoC5/BPM_ADC.c ****     BPM_ADC_STBY_PWRMGR_CHARGE_PUMP_CLK_REG |= BPM_ADC_STBY_PWR_CHARGE_PUMP_CLK_EN;
 292:.\Generated_Source\PSoC5/BPM_ADC.c **** 
 293:.\Generated_Source\PSoC5/BPM_ADC.c ****     #if(BPM_ADC_IRQ_REMOVE == 0u)
 294:.\Generated_Source\PSoC5/BPM_ADC.c ****         /* Clear a pending interrupt */
 295:.\Generated_Source\PSoC5/BPM_ADC.c ****         CyIntClearPending(BPM_ADC_INTC_NUMBER);
 296:.\Generated_Source\PSoC5/BPM_ADC.c ****         /* Enable interrupt */
 297:.\Generated_Source\PSoC5/BPM_ADC.c ****         CyIntEnable(BPM_ADC_INTC_NUMBER);
 298:.\Generated_Source\PSoC5/BPM_ADC.c ****     #endif   /* End BPM_ADC_IRQ_REMOVE */
 299:.\Generated_Source\PSoC5/BPM_ADC.c **** 
 300:.\Generated_Source\PSoC5/BPM_ADC.c ****     CyExitCriticalSection(enableInterrupts);
 301:.\Generated_Source\PSoC5/BPM_ADC.c **** 
 302:.\Generated_Source\PSoC5/BPM_ADC.c **** }
 303:.\Generated_Source\PSoC5/BPM_ADC.c **** 
 304:.\Generated_Source\PSoC5/BPM_ADC.c **** 
 305:.\Generated_Source\PSoC5/BPM_ADC.c **** /*******************************************************************************
 306:.\Generated_Source\PSoC5/BPM_ADC.c **** * Function Name: BPM_ADC_Start
 307:.\Generated_Source\PSoC5/BPM_ADC.c **** ********************************************************************************
 308:.\Generated_Source\PSoC5/BPM_ADC.c **** *
 309:.\Generated_Source\PSoC5/BPM_ADC.c **** * Summary:
 310:.\Generated_Source\PSoC5/BPM_ADC.c **** *  Performs all required initialization for this component and enables
 311:.\Generated_Source\PSoC5/BPM_ADC.c **** *  the power. It configure all the register the first time it is called.
 312:.\Generated_Source\PSoC5/BPM_ADC.c **** *  Subsequent calls of the Start function only enable the ADC and turn
 313:.\Generated_Source\PSoC5/BPM_ADC.c **** *  on the power. If multiple configurations are selected, it will
 314:.\Generated_Source\PSoC5/BPM_ADC.c **** *  configure the ADC for configuration 1 by default, unless the
 315:.\Generated_Source\PSoC5/BPM_ADC.c **** *  BPM_ADC_SelectConfiguration( ) function has been called to change
 316:.\Generated_Source\PSoC5/BPM_ADC.c **** *  the default setting.
 317:.\Generated_Source\PSoC5/BPM_ADC.c **** *
ARM GAS  C:\Users\student\AppData\Local\Temp\ccHj2j2l.s 			page 7


 318:.\Generated_Source\PSoC5/BPM_ADC.c **** * Parameters:
 319:.\Generated_Source\PSoC5/BPM_ADC.c **** *  None
 320:.\Generated_Source\PSoC5/BPM_ADC.c **** *
 321:.\Generated_Source\PSoC5/BPM_ADC.c **** * Return:
 322:.\Generated_Source\PSoC5/BPM_ADC.c **** *  None
 323:.\Generated_Source\PSoC5/BPM_ADC.c **** *
 324:.\Generated_Source\PSoC5/BPM_ADC.c **** * Global variables:
 325:.\Generated_Source\PSoC5/BPM_ADC.c **** *  BPM_ADC_initVar:  Used to check the initial configuration,
 326:.\Generated_Source\PSoC5/BPM_ADC.c **** *  modified when this function is called for the first time.
 327:.\Generated_Source\PSoC5/BPM_ADC.c **** *
 328:.\Generated_Source\PSoC5/BPM_ADC.c **** *******************************************************************************/
 329:.\Generated_Source\PSoC5/BPM_ADC.c **** void BPM_ADC_Start(void) 
 330:.\Generated_Source\PSoC5/BPM_ADC.c **** {
 331:.\Generated_Source\PSoC5/BPM_ADC.c ****     if(BPM_ADC_initVar == 0u)
 332:.\Generated_Source\PSoC5/BPM_ADC.c ****     {
 333:.\Generated_Source\PSoC5/BPM_ADC.c ****         if(BPM_ADC_started == 0u)
 334:.\Generated_Source\PSoC5/BPM_ADC.c ****         {
 335:.\Generated_Source\PSoC5/BPM_ADC.c ****             BPM_ADC_Init();
 336:.\Generated_Source\PSoC5/BPM_ADC.c ****         }
 337:.\Generated_Source\PSoC5/BPM_ADC.c ****         BPM_ADC_initVar = 1u;
 338:.\Generated_Source\PSoC5/BPM_ADC.c ****     }
 339:.\Generated_Source\PSoC5/BPM_ADC.c **** 
 340:.\Generated_Source\PSoC5/BPM_ADC.c ****     /* Enable the ADC */
 341:.\Generated_Source\PSoC5/BPM_ADC.c ****     BPM_ADC_Enable();
 342:.\Generated_Source\PSoC5/BPM_ADC.c **** }
 343:.\Generated_Source\PSoC5/BPM_ADC.c **** 
 344:.\Generated_Source\PSoC5/BPM_ADC.c **** 
 345:.\Generated_Source\PSoC5/BPM_ADC.c **** /*******************************************************************************
 346:.\Generated_Source\PSoC5/BPM_ADC.c **** * Function Name: BPM_ADC_Stop
 347:.\Generated_Source\PSoC5/BPM_ADC.c **** ********************************************************************************
 348:.\Generated_Source\PSoC5/BPM_ADC.c **** *
 349:.\Generated_Source\PSoC5/BPM_ADC.c **** * Summary:
 350:.\Generated_Source\PSoC5/BPM_ADC.c **** *  This function stops and powers down the ADC component and the internal
 351:.\Generated_Source\PSoC5/BPM_ADC.c **** *  clock if the external clock is not selected. If an external clock is
 352:.\Generated_Source\PSoC5/BPM_ADC.c **** *  used, it is up to the designer to power down the external clock it
 353:.\Generated_Source\PSoC5/BPM_ADC.c **** *  required.
 354:.\Generated_Source\PSoC5/BPM_ADC.c **** *
 355:.\Generated_Source\PSoC5/BPM_ADC.c **** * Parameters:
 356:.\Generated_Source\PSoC5/BPM_ADC.c **** *  None
 357:.\Generated_Source\PSoC5/BPM_ADC.c **** *
 358:.\Generated_Source\PSoC5/BPM_ADC.c **** * Return:
 359:.\Generated_Source\PSoC5/BPM_ADC.c **** *  None
 360:.\Generated_Source\PSoC5/BPM_ADC.c **** *
 361:.\Generated_Source\PSoC5/BPM_ADC.c **** *******************************************************************************/
 362:.\Generated_Source\PSoC5/BPM_ADC.c **** void BPM_ADC_Stop(void) 
 363:.\Generated_Source\PSoC5/BPM_ADC.c **** {
 364:.\Generated_Source\PSoC5/BPM_ADC.c ****     uint8 enableInterrupts;
 365:.\Generated_Source\PSoC5/BPM_ADC.c ****     enableInterrupts = CyEnterCriticalSection();
 366:.\Generated_Source\PSoC5/BPM_ADC.c **** 
 367:.\Generated_Source\PSoC5/BPM_ADC.c ****     /* Stop conversions */
 368:.\Generated_Source\PSoC5/BPM_ADC.c ****     BPM_ADC_DEC_CR_REG &= (uint8)~BPM_ADC_DEC_START_CONV;
 369:.\Generated_Source\PSoC5/BPM_ADC.c ****     BPM_ADC_DEC_SR_REG |=  BPM_ADC_DEC_INTR_CLEAR;
 370:.\Generated_Source\PSoC5/BPM_ADC.c **** 
 371:.\Generated_Source\PSoC5/BPM_ADC.c ****     /* Disable PRES, Disable power to VCMBUF0, REFBUF0 and REFBUF1,
 372:.\Generated_Source\PSoC5/BPM_ADC.c ****        enable PRES */
 373:.\Generated_Source\PSoC5/BPM_ADC.c ****     BPM_ADC_RESET_CR4_REG |= BPM_ADC_IGNORE_PRESA1;
 374:.\Generated_Source\PSoC5/BPM_ADC.c ****     BPM_ADC_RESET_CR5_REG |= BPM_ADC_IGNORE_PRESA2;
ARM GAS  C:\Users\student\AppData\Local\Temp\ccHj2j2l.s 			page 8


 375:.\Generated_Source\PSoC5/BPM_ADC.c **** 
 376:.\Generated_Source\PSoC5/BPM_ADC.c ****     BPM_ADC_DSM_CR17_REG &= (uint8)~(BPM_ADC_DSM_EN_BUF_VREF | BPM_ADC_DSM_EN_BUF_VCM);
 377:.\Generated_Source\PSoC5/BPM_ADC.c ****     BPM_ADC_DSM_REF0_REG &= (uint8)~BPM_ADC_DSM_EN_BUF_VREF_INN;
 378:.\Generated_Source\PSoC5/BPM_ADC.c **** 
 379:.\Generated_Source\PSoC5/BPM_ADC.c ****     /* Wait for 3 microseconds. */
 380:.\Generated_Source\PSoC5/BPM_ADC.c ****     CyDelayUs(BPM_ADC_PRES_DELAY_TIME);
 381:.\Generated_Source\PSoC5/BPM_ADC.c **** 
 382:.\Generated_Source\PSoC5/BPM_ADC.c ****     /* Enable the press circuit */
 383:.\Generated_Source\PSoC5/BPM_ADC.c ****     BPM_ADC_RESET_CR4_REG &= (uint8)~BPM_ADC_IGNORE_PRESA1;
 384:.\Generated_Source\PSoC5/BPM_ADC.c ****     BPM_ADC_RESET_CR5_REG &= (uint8)~BPM_ADC_IGNORE_PRESA2;
 385:.\Generated_Source\PSoC5/BPM_ADC.c **** 
 386:.\Generated_Source\PSoC5/BPM_ADC.c ****     /* Disable power to the ADC */
 387:.\Generated_Source\PSoC5/BPM_ADC.c ****     BPM_ADC_PWRMGR_DSM_REG &= (uint8)~BPM_ADC_ACT_PWR_DSM_EN;
 388:.\Generated_Source\PSoC5/BPM_ADC.c **** 
 389:.\Generated_Source\PSoC5/BPM_ADC.c ****     /* Disable power to Decimator block */
 390:.\Generated_Source\PSoC5/BPM_ADC.c ****     BPM_ADC_PWRMGR_DEC_REG &= (uint8)~BPM_ADC_ACT_PWR_DEC_EN;
 391:.\Generated_Source\PSoC5/BPM_ADC.c **** 
 392:.\Generated_Source\PSoC5/BPM_ADC.c ****     /* Disable alternative active power to the ADC */
 393:.\Generated_Source\PSoC5/BPM_ADC.c ****     BPM_ADC_STBY_PWRMGR_DEC_REG &= (uint8)~BPM_ADC_STBY_PWR_DEC_EN;
 394:.\Generated_Source\PSoC5/BPM_ADC.c ****     BPM_ADC_STBY_PWRMGR_DSM_REG &= (uint8)~BPM_ADC_STBY_PWR_DSM_EN;
 395:.\Generated_Source\PSoC5/BPM_ADC.c **** 
 396:.\Generated_Source\PSoC5/BPM_ADC.c ****    /* Disable negative pumps for DSM  */
 397:.\Generated_Source\PSoC5/BPM_ADC.c ****     BPM_ADC_PUMP_CR1_REG &= (uint8)~(BPM_ADC_PUMP_CR1_CLKSEL | BPM_ADC_PUMP_CR1_FORCE );
 398:.\Generated_Source\PSoC5/BPM_ADC.c **** 
 399:.\Generated_Source\PSoC5/BPM_ADC.c ****     /* This is only valid if there is an internal clock */
 400:.\Generated_Source\PSoC5/BPM_ADC.c ****     #if(BPM_ADC_DEFAULT_INTERNAL_CLK)
 401:.\Generated_Source\PSoC5/BPM_ADC.c ****         BPM_ADC_PWRMGR_CLK_REG &= (uint8)~BPM_ADC_ACT_PWR_CLK_EN;
 402:.\Generated_Source\PSoC5/BPM_ADC.c ****         BPM_ADC_STBY_PWRMGR_CLK_REG &= (uint8)~BPM_ADC_STBY_PWR_CLK_EN;
 403:.\Generated_Source\PSoC5/BPM_ADC.c ****     #endif /* BPM_ADC_DEFAULT_INTERNAL_CLK */
 404:.\Generated_Source\PSoC5/BPM_ADC.c **** 
 405:.\Generated_Source\PSoC5/BPM_ADC.c ****     /* Disable Modulator Chopping */
 406:.\Generated_Source\PSoC5/BPM_ADC.c ****     BPM_ADC_DSM_CR2_REG &= (uint8)~BPM_ADC_DSM_MOD_CHOP_EN;
 407:.\Generated_Source\PSoC5/BPM_ADC.c ****     /* Disable power to charge pump clock */
 408:.\Generated_Source\PSoC5/BPM_ADC.c ****     BPM_ADC_PWRMGR_CHARGE_PUMP_CLK_REG &= (uint8)~BPM_ADC_ACT_PWR_CHARGE_PUMP_CLK_EN;
 409:.\Generated_Source\PSoC5/BPM_ADC.c ****     BPM_ADC_STBY_PWRMGR_CHARGE_PUMP_CLK_REG &= (uint8)~BPM_ADC_STBY_PWR_CHARGE_PUMP_CLK_EN;
 410:.\Generated_Source\PSoC5/BPM_ADC.c ****     
 411:.\Generated_Source\PSoC5/BPM_ADC.c ****     CyExitCriticalSection(enableInterrupts);
 412:.\Generated_Source\PSoC5/BPM_ADC.c **** }
 413:.\Generated_Source\PSoC5/BPM_ADC.c **** 
 414:.\Generated_Source\PSoC5/BPM_ADC.c **** 
 415:.\Generated_Source\PSoC5/BPM_ADC.c **** /*******************************************************************************
 416:.\Generated_Source\PSoC5/BPM_ADC.c **** * Function Name: BPM_ADC_SetBufferGain
 417:.\Generated_Source\PSoC5/BPM_ADC.c **** ********************************************************************************
 418:.\Generated_Source\PSoC5/BPM_ADC.c **** *
 419:.\Generated_Source\PSoC5/BPM_ADC.c **** * Summary:
 420:.\Generated_Source\PSoC5/BPM_ADC.c **** *  Sets input buffer gain.
 421:.\Generated_Source\PSoC5/BPM_ADC.c **** *
 422:.\Generated_Source\PSoC5/BPM_ADC.c **** * Parameters:
 423:.\Generated_Source\PSoC5/BPM_ADC.c **** *  gain:  Two bit value to select a gain of 1, 2, 4, or 8.
 424:.\Generated_Source\PSoC5/BPM_ADC.c **** *
 425:.\Generated_Source\PSoC5/BPM_ADC.c **** * Return:
 426:.\Generated_Source\PSoC5/BPM_ADC.c **** *  None
 427:.\Generated_Source\PSoC5/BPM_ADC.c **** *
 428:.\Generated_Source\PSoC5/BPM_ADC.c **** *******************************************************************************/
 429:.\Generated_Source\PSoC5/BPM_ADC.c **** void BPM_ADC_SetBufferGain(uint8 gain) 
 430:.\Generated_Source\PSoC5/BPM_ADC.c **** {
 431:.\Generated_Source\PSoC5/BPM_ADC.c ****     uint8 tmpReg;
ARM GAS  C:\Users\student\AppData\Local\Temp\ccHj2j2l.s 			page 9


 432:.\Generated_Source\PSoC5/BPM_ADC.c ****     tmpReg = BPM_ADC_DSM_BUF1_REG & (uint8)~BPM_ADC_DSM_GAIN_MASK;
 433:.\Generated_Source\PSoC5/BPM_ADC.c ****     tmpReg |= (uint8)(gain << BPM_ADC_DSM_GAIN_SHIFT) & BPM_ADC_DSM_GAIN_MASK;
 434:.\Generated_Source\PSoC5/BPM_ADC.c ****     BPM_ADC_DSM_BUF1_REG = tmpReg;
 435:.\Generated_Source\PSoC5/BPM_ADC.c **** }
 436:.\Generated_Source\PSoC5/BPM_ADC.c **** 
 437:.\Generated_Source\PSoC5/BPM_ADC.c **** 
 438:.\Generated_Source\PSoC5/BPM_ADC.c **** /*******************************************************************************
 439:.\Generated_Source\PSoC5/BPM_ADC.c **** * Function Name: BPM_ADC_SetCoherency
 440:.\Generated_Source\PSoC5/BPM_ADC.c **** ********************************************************************************
 441:.\Generated_Source\PSoC5/BPM_ADC.c **** *
 442:.\Generated_Source\PSoC5/BPM_ADC.c **** * Summary:
 443:.\Generated_Source\PSoC5/BPM_ADC.c **** *  This function allows the user to change which of the ADC's 3 word
 444:.\Generated_Source\PSoC5/BPM_ADC.c **** *  result will trigger a coherency unlock. The ADC's result will not be
 445:.\Generated_Source\PSoC5/BPM_ADC.c **** *  updated until the set byte is read either by the ADC or DMA. 
 446:.\Generated_Source\PSoC5/BPM_ADC.c **** *  By default the LSB is the coherency byte for right alignment data format. 
 447:.\Generated_Source\PSoC5/BPM_ADC.c **** *  The middle or high byte is set automatically depend on left alignment 
 448:.\Generated_Source\PSoC5/BPM_ADC.c **** *  configuration for DMA data transfer.
 449:.\Generated_Source\PSoC5/BPM_ADC.c **** *  If DMA or if a custom API requires different byte to be read the last,
 450:.\Generated_Source\PSoC5/BPM_ADC.c **** *  this API should be used to set the last byte of the ADC result that is read. 
 451:.\Generated_Source\PSoC5/BPM_ADC.c **** *  If a multibyte read is performed either by DMA or the ARM processor, the
 452:.\Generated_Source\PSoC5/BPM_ADC.c **** *  coherency can be set to any byte in the last word read.
 453:.\Generated_Source\PSoC5/BPM_ADC.c **** *
 454:.\Generated_Source\PSoC5/BPM_ADC.c **** * Parameters:
 455:.\Generated_Source\PSoC5/BPM_ADC.c **** *  coherency:  Two bit value to set the coherency bit.
 456:.\Generated_Source\PSoC5/BPM_ADC.c **** *           00-Coherency checking off
 457:.\Generated_Source\PSoC5/BPM_ADC.c **** *           01-low byte is key byte
 458:.\Generated_Source\PSoC5/BPM_ADC.c **** *           02-middle byte is the key byte
 459:.\Generated_Source\PSoC5/BPM_ADC.c **** *           03-high byte is the key byte
 460:.\Generated_Source\PSoC5/BPM_ADC.c **** *
 461:.\Generated_Source\PSoC5/BPM_ADC.c **** * Return:
 462:.\Generated_Source\PSoC5/BPM_ADC.c **** *  None
 463:.\Generated_Source\PSoC5/BPM_ADC.c **** *
 464:.\Generated_Source\PSoC5/BPM_ADC.c **** *******************************************************************************/
 465:.\Generated_Source\PSoC5/BPM_ADC.c **** void BPM_ADC_SetCoherency(uint8 coherency) 
 466:.\Generated_Source\PSoC5/BPM_ADC.c **** {
 467:.\Generated_Source\PSoC5/BPM_ADC.c ****     uint8 tmpReg;
 468:.\Generated_Source\PSoC5/BPM_ADC.c **** 
 469:.\Generated_Source\PSoC5/BPM_ADC.c ****     tmpReg = BPM_ADC_DEC_COHER_REG & (uint8)~BPM_ADC_DEC_SAMP_KEY_MASK;
 470:.\Generated_Source\PSoC5/BPM_ADC.c ****     tmpReg |= coherency & BPM_ADC_DEC_SAMP_KEY_MASK;
 471:.\Generated_Source\PSoC5/BPM_ADC.c ****     BPM_ADC_DEC_COHER_REG = tmpReg;
 472:.\Generated_Source\PSoC5/BPM_ADC.c **** }
 473:.\Generated_Source\PSoC5/BPM_ADC.c **** 
 474:.\Generated_Source\PSoC5/BPM_ADC.c **** 
 475:.\Generated_Source\PSoC5/BPM_ADC.c **** /*******************************************************************************
 476:.\Generated_Source\PSoC5/BPM_ADC.c **** * Function Name: BPM_ADC_SetGCOR
 477:.\Generated_Source\PSoC5/BPM_ADC.c **** ********************************************************************************
 478:.\Generated_Source\PSoC5/BPM_ADC.c **** *
 479:.\Generated_Source\PSoC5/BPM_ADC.c **** * Summary:
 480:.\Generated_Source\PSoC5/BPM_ADC.c **** *  Calculates a new GCOR value and writes it into the GCOR register. 
 481:.\Generated_Source\PSoC5/BPM_ADC.c **** *  The GCOR value is a 16-bit value that represents a gain of 0 to 2. 
 482:.\Generated_Source\PSoC5/BPM_ADC.c **** *  The ADC result is multiplied by this value before it is placed in the ADC 
 483:.\Generated_Source\PSoC5/BPM_ADC.c **** *  output registers. The numerical format for the GCOR value is:
 484:.\Generated_Source\PSoC5/BPM_ADC.c **** *  0x0000 -> 0.000
 485:.\Generated_Source\PSoC5/BPM_ADC.c **** *  0x8000 -> 1.000
 486:.\Generated_Source\PSoC5/BPM_ADC.c **** *  0xFFFF -> 1.99997
 487:.\Generated_Source\PSoC5/BPM_ADC.c **** *  When executing the function, the old GCOR value is multiplied by
 488:.\Generated_Source\PSoC5/BPM_ADC.c **** *  gainAdjust and reloaded into the GCOR register.
ARM GAS  C:\Users\student\AppData\Local\Temp\ccHj2j2l.s 			page 10


 489:.\Generated_Source\PSoC5/BPM_ADC.c **** *
 490:.\Generated_Source\PSoC5/BPM_ADC.c **** * Parameters:
 491:.\Generated_Source\PSoC5/BPM_ADC.c **** *  gainAdjust:  floating point value to set GCOR registers.
 492:.\Generated_Source\PSoC5/BPM_ADC.c **** *
 493:.\Generated_Source\PSoC5/BPM_ADC.c **** * Return:
 494:.\Generated_Source\PSoC5/BPM_ADC.c **** *  uint8: 0 - if GCOR value is within the expected range.
 495:.\Generated_Source\PSoC5/BPM_ADC.c **** *         1 - the correction value is outside GCOR value range of
 496:.\Generated_Source\PSoC5/BPM_ADC.c **** *             0.00 to 1.9999.
 497:.\Generated_Source\PSoC5/BPM_ADC.c **** *
 498:.\Generated_Source\PSoC5/BPM_ADC.c **** * Side Effects:  The GVAL register is set to the amount of valid bits in the
 499:.\Generated_Source\PSoC5/BPM_ADC.c **** *                GCOR  register minus one. If GVAL is 15 (0x0F), all 16 bits
 500:.\Generated_Source\PSoC5/BPM_ADC.c **** *                of the GCOR registers will be valid. If for example GVAL is
 501:.\Generated_Source\PSoC5/BPM_ADC.c **** *                11 (0x0B) only 12 bits will be valid. The least 4 bits will
 502:.\Generated_Source\PSoC5/BPM_ADC.c **** *                be lost when the GCOR value is shifted 4 places to the right.
 503:.\Generated_Source\PSoC5/BPM_ADC.c **** *
 504:.\Generated_Source\PSoC5/BPM_ADC.c **** ******************************************************************************/
 505:.\Generated_Source\PSoC5/BPM_ADC.c **** uint8 BPM_ADC_SetGCOR(float32 gainAdjust) 
 506:.\Generated_Source\PSoC5/BPM_ADC.c **** {
 507:.\Generated_Source\PSoC5/BPM_ADC.c ****     uint16 tmpReg;
 508:.\Generated_Source\PSoC5/BPM_ADC.c ****     uint8 status;
 509:.\Generated_Source\PSoC5/BPM_ADC.c ****     float32 tmpValue;
 510:.\Generated_Source\PSoC5/BPM_ADC.c **** 
 511:.\Generated_Source\PSoC5/BPM_ADC.c ****     tmpReg = BPM_ADC_gcor[BPM_ADC_Config - 1u].gcor;
 512:.\Generated_Source\PSoC5/BPM_ADC.c ****     tmpValue = ((float32)tmpReg / (float32)BPM_ADC_IDEAL_GAIN_CONST);
 513:.\Generated_Source\PSoC5/BPM_ADC.c ****     tmpValue = tmpValue * gainAdjust;
 514:.\Generated_Source\PSoC5/BPM_ADC.c **** 
 515:.\Generated_Source\PSoC5/BPM_ADC.c ****     if (tmpValue > 1.9999)
 516:.\Generated_Source\PSoC5/BPM_ADC.c ****     {
 517:.\Generated_Source\PSoC5/BPM_ADC.c ****         status = 1u;
 518:.\Generated_Source\PSoC5/BPM_ADC.c ****     }
 519:.\Generated_Source\PSoC5/BPM_ADC.c ****     else
 520:.\Generated_Source\PSoC5/BPM_ADC.c ****     {
 521:.\Generated_Source\PSoC5/BPM_ADC.c ****         tmpValue *= (float32)BPM_ADC_IDEAL_GAIN_CONST;
 522:.\Generated_Source\PSoC5/BPM_ADC.c **** 		tmpReg = (uint16)tmpValue;
 523:.\Generated_Source\PSoC5/BPM_ADC.c ****         CY_SET_REG16(BPM_ADC_DEC_GCOR_16B_PTR, tmpReg);
 524:.\Generated_Source\PSoC5/BPM_ADC.c ****         /* Update gain array to be used by SelectConfiguration() API */
 525:.\Generated_Source\PSoC5/BPM_ADC.c ****        BPM_ADC_gcor[BPM_ADC_Config - 1u].gcor = tmpReg;
 526:.\Generated_Source\PSoC5/BPM_ADC.c **** 
 527:.\Generated_Source\PSoC5/BPM_ADC.c ****         status = 0u;
 528:.\Generated_Source\PSoC5/BPM_ADC.c **** 
 529:.\Generated_Source\PSoC5/BPM_ADC.c ****     }
 530:.\Generated_Source\PSoC5/BPM_ADC.c ****     return(status);
 531:.\Generated_Source\PSoC5/BPM_ADC.c **** }
 532:.\Generated_Source\PSoC5/BPM_ADC.c **** 
 533:.\Generated_Source\PSoC5/BPM_ADC.c **** 
 534:.\Generated_Source\PSoC5/BPM_ADC.c **** /******************************************************************************
 535:.\Generated_Source\PSoC5/BPM_ADC.c **** * Function Name: BPM_ADC_ReadGCOR
 536:.\Generated_Source\PSoC5/BPM_ADC.c **** *******************************************************************************
 537:.\Generated_Source\PSoC5/BPM_ADC.c **** *
 538:.\Generated_Source\PSoC5/BPM_ADC.c **** * Summary:
 539:.\Generated_Source\PSoC5/BPM_ADC.c **** *  This API returns the current GCOR register value, normalized based on the
 540:.\Generated_Source\PSoC5/BPM_ADC.c **** *  GVAL register settings.
 541:.\Generated_Source\PSoC5/BPM_ADC.c **** *  For example, if the GCOR value is 0x0812 and the GVAL register is set to 
 542:.\Generated_Source\PSoC5/BPM_ADC.c **** *  11 (0x0B) then the returned value will be shifted by for bits to the left.
 543:.\Generated_Source\PSoC5/BPM_ADC.c **** *  (Actual GCOR value = 0x0812, returned value = 0x8120)
 544:.\Generated_Source\PSoC5/BPM_ADC.c **** *
 545:.\Generated_Source\PSoC5/BPM_ADC.c **** * Parameters:
ARM GAS  C:\Users\student\AppData\Local\Temp\ccHj2j2l.s 			page 11


 546:.\Generated_Source\PSoC5/BPM_ADC.c **** *  None
 547:.\Generated_Source\PSoC5/BPM_ADC.c **** *
 548:.\Generated_Source\PSoC5/BPM_ADC.c **** * Return:
 549:.\Generated_Source\PSoC5/BPM_ADC.c **** *  uint16:  Normalized GCOR value.
 550:.\Generated_Source\PSoC5/BPM_ADC.c **** *
 551:.\Generated_Source\PSoC5/BPM_ADC.c **** *******************************************************************************/
 552:.\Generated_Source\PSoC5/BPM_ADC.c **** uint16 BPM_ADC_ReadGCOR(void) 
 553:.\Generated_Source\PSoC5/BPM_ADC.c **** {
 554:.\Generated_Source\PSoC5/BPM_ADC.c ****     uint8 gValue;
 555:.\Generated_Source\PSoC5/BPM_ADC.c ****     uint16 gcorValue;
 556:.\Generated_Source\PSoC5/BPM_ADC.c **** 
 557:.\Generated_Source\PSoC5/BPM_ADC.c ****     gValue = BPM_ADC_DEC_GVAL_REG;
 558:.\Generated_Source\PSoC5/BPM_ADC.c ****     gcorValue = CY_GET_REG16(BPM_ADC_DEC_GCOR_16B_PTR);
 559:.\Generated_Source\PSoC5/BPM_ADC.c **** 
 560:.\Generated_Source\PSoC5/BPM_ADC.c ****     if (gValue < BPM_ADC_MAX_GVAL)
 561:.\Generated_Source\PSoC5/BPM_ADC.c ****     {
 562:.\Generated_Source\PSoC5/BPM_ADC.c ****         gcorValue <<= BPM_ADC_MAX_GVAL - gValue;
 563:.\Generated_Source\PSoC5/BPM_ADC.c ****     }
 564:.\Generated_Source\PSoC5/BPM_ADC.c **** 
 565:.\Generated_Source\PSoC5/BPM_ADC.c ****     return gcorValue;
 566:.\Generated_Source\PSoC5/BPM_ADC.c **** }
 567:.\Generated_Source\PSoC5/BPM_ADC.c **** 
 568:.\Generated_Source\PSoC5/BPM_ADC.c **** 
 569:.\Generated_Source\PSoC5/BPM_ADC.c **** /*******************************************************************************
 570:.\Generated_Source\PSoC5/BPM_ADC.c **** * Function Name: BPM_ADC_StartConvert
 571:.\Generated_Source\PSoC5/BPM_ADC.c **** ********************************************************************************
 572:.\Generated_Source\PSoC5/BPM_ADC.c **** *
 573:.\Generated_Source\PSoC5/BPM_ADC.c **** * Summary:
 574:.\Generated_Source\PSoC5/BPM_ADC.c **** *  Forces the ADC to initiate a conversion. If in the "Single Sample"
 575:.\Generated_Source\PSoC5/BPM_ADC.c **** *  mode, one conversion will be performed then the ADC will halt. If in
 576:.\Generated_Source\PSoC5/BPM_ADC.c **** *  one of the other three conversion modes, the ADC will run
 577:.\Generated_Source\PSoC5/BPM_ADC.c **** *  continuously until the ADC_Stop() or ADC_StopConvert() is called.
 578:.\Generated_Source\PSoC5/BPM_ADC.c **** *
 579:.\Generated_Source\PSoC5/BPM_ADC.c **** * Parameters:
 580:.\Generated_Source\PSoC5/BPM_ADC.c **** *  None
 581:.\Generated_Source\PSoC5/BPM_ADC.c **** *
 582:.\Generated_Source\PSoC5/BPM_ADC.c **** * Return:
 583:.\Generated_Source\PSoC5/BPM_ADC.c **** *  None
 584:.\Generated_Source\PSoC5/BPM_ADC.c **** *
 585:.\Generated_Source\PSoC5/BPM_ADC.c **** *******************************************************************************/
 586:.\Generated_Source\PSoC5/BPM_ADC.c **** void BPM_ADC_StartConvert(void) 
 587:.\Generated_Source\PSoC5/BPM_ADC.c **** {
 588:.\Generated_Source\PSoC5/BPM_ADC.c ****     /* Start the conversion */
 589:.\Generated_Source\PSoC5/BPM_ADC.c ****     BPM_ADC_DEC_CR_REG |= BPM_ADC_DEC_START_CONV;
 590:.\Generated_Source\PSoC5/BPM_ADC.c **** }
 591:.\Generated_Source\PSoC5/BPM_ADC.c **** 
 592:.\Generated_Source\PSoC5/BPM_ADC.c **** 
 593:.\Generated_Source\PSoC5/BPM_ADC.c **** /*******************************************************************************
 594:.\Generated_Source\PSoC5/BPM_ADC.c **** * Function Name: BPM_ADC_StopConvert
 595:.\Generated_Source\PSoC5/BPM_ADC.c **** ********************************************************************************
 596:.\Generated_Source\PSoC5/BPM_ADC.c **** *
 597:.\Generated_Source\PSoC5/BPM_ADC.c **** * Summary:
 598:.\Generated_Source\PSoC5/BPM_ADC.c **** *  Forces the ADC to stop all conversions. If the ADC is in the middle of a
 599:.\Generated_Source\PSoC5/BPM_ADC.c **** *  conversion, the ADC will be reset and not provide a result for that partial
 600:.\Generated_Source\PSoC5/BPM_ADC.c **** *  conversion.
 601:.\Generated_Source\PSoC5/BPM_ADC.c **** *
 602:.\Generated_Source\PSoC5/BPM_ADC.c **** * Parameters:
ARM GAS  C:\Users\student\AppData\Local\Temp\ccHj2j2l.s 			page 12


 603:.\Generated_Source\PSoC5/BPM_ADC.c **** *  None
 604:.\Generated_Source\PSoC5/BPM_ADC.c **** *
 605:.\Generated_Source\PSoC5/BPM_ADC.c **** * Return:
 606:.\Generated_Source\PSoC5/BPM_ADC.c **** *  None
 607:.\Generated_Source\PSoC5/BPM_ADC.c **** *
 608:.\Generated_Source\PSoC5/BPM_ADC.c **** *******************************************************************************/
 609:.\Generated_Source\PSoC5/BPM_ADC.c **** void BPM_ADC_StopConvert(void) 
 610:.\Generated_Source\PSoC5/BPM_ADC.c **** {
 611:.\Generated_Source\PSoC5/BPM_ADC.c ****     /* Stop all conversions */
 612:.\Generated_Source\PSoC5/BPM_ADC.c ****     BPM_ADC_DEC_CR_REG &= (uint8)~BPM_ADC_DEC_START_CONV;
 613:.\Generated_Source\PSoC5/BPM_ADC.c **** }
 614:.\Generated_Source\PSoC5/BPM_ADC.c **** 
 615:.\Generated_Source\PSoC5/BPM_ADC.c **** 
 616:.\Generated_Source\PSoC5/BPM_ADC.c **** /*******************************************************************************
 617:.\Generated_Source\PSoC5/BPM_ADC.c **** * Function Name: BPM_ADC_IsEndConversion
 618:.\Generated_Source\PSoC5/BPM_ADC.c **** ********************************************************************************
 619:.\Generated_Source\PSoC5/BPM_ADC.c **** *
 620:.\Generated_Source\PSoC5/BPM_ADC.c **** * Summary:
 621:.\Generated_Source\PSoC5/BPM_ADC.c **** *  Checks the status that the most recently started conversion has completed.
 622:.\Generated_Source\PSoC5/BPM_ADC.c **** *  The status is cleared by any of ADC_GetResult8(), ADC_GetResult16() or 
 623:.\Generated_Source\PSoC5/BPM_ADC.c **** *  ADC_GetResult32() API.
 624:.\Generated_Source\PSoC5/BPM_ADC.c **** *  This function provides the programmer with two options. In one mode this 
 625:.\Generated_Source\PSoC5/BPM_ADC.c **** *  function immediately returns with the conversion status. In the other mode,
 626:.\Generated_Source\PSoC5/BPM_ADC.c **** *  the function does not return (blocking) until the conversion has completed.
 627:.\Generated_Source\PSoC5/BPM_ADC.c **** *
 628:.\Generated_Source\PSoC5/BPM_ADC.c **** * Parameters:
 629:.\Generated_Source\PSoC5/BPM_ADC.c **** *  retMode: Check conversion return mode. See the following table for options.
 630:.\Generated_Source\PSoC5/BPM_ADC.c **** *   BPM_ADC_RETURN_STATUS -   Immediately returns conversion result
 631:.\Generated_Source\PSoC5/BPM_ADC.c **** *                                      status.
 632:.\Generated_Source\PSoC5/BPM_ADC.c **** *   BPM_ADC_WAIT_FOR_RESULT - Does not return until ADC conversion
 633:.\Generated_Source\PSoC5/BPM_ADC.c **** *                                      is complete.
 634:.\Generated_Source\PSoC5/BPM_ADC.c **** *
 635:.\Generated_Source\PSoC5/BPM_ADC.c **** * Return:
 636:.\Generated_Source\PSoC5/BPM_ADC.c **** *  If a nonzero value is returned, the last conversion has completed.
 637:.\Generated_Source\PSoC5/BPM_ADC.c **** *  If the returned value is zero, the ADC is still calculating the last result.
 638:.\Generated_Source\PSoC5/BPM_ADC.c **** *
 639:.\Generated_Source\PSoC5/BPM_ADC.c **** * Global variables:
 640:.\Generated_Source\PSoC5/BPM_ADC.c **** *  BPM_ADC_convDone:  Used to check whether conversion is complete
 641:.\Generated_Source\PSoC5/BPM_ADC.c **** *  or not for single sample mode with resolution is above 16
 642:.\Generated_Source\PSoC5/BPM_ADC.c **** *
 643:.\Generated_Source\PSoC5/BPM_ADC.c **** *******************************************************************************/
 644:.\Generated_Source\PSoC5/BPM_ADC.c **** uint8 BPM_ADC_IsEndConversion(uint8 retMode) 
 645:.\Generated_Source\PSoC5/BPM_ADC.c **** {
 646:.\Generated_Source\PSoC5/BPM_ADC.c ****     uint8 status;
 647:.\Generated_Source\PSoC5/BPM_ADC.c **** 
 648:.\Generated_Source\PSoC5/BPM_ADC.c ****     do
 649:.\Generated_Source\PSoC5/BPM_ADC.c ****     {
 650:.\Generated_Source\PSoC5/BPM_ADC.c ****         /* Check for stop convert if conversion mode is Single Sample with
 651:.\Generated_Source\PSoC5/BPM_ADC.c ****         *   resolution above 16 bit
 652:.\Generated_Source\PSoC5/BPM_ADC.c ****         */
 653:.\Generated_Source\PSoC5/BPM_ADC.c ****         if(BPM_ADC_stopConversion != 0u)
 654:.\Generated_Source\PSoC5/BPM_ADC.c ****         {
 655:.\Generated_Source\PSoC5/BPM_ADC.c ****             status = BPM_ADC_convDone;
 656:.\Generated_Source\PSoC5/BPM_ADC.c ****         }
 657:.\Generated_Source\PSoC5/BPM_ADC.c ****         else
 658:.\Generated_Source\PSoC5/BPM_ADC.c ****         {
 659:.\Generated_Source\PSoC5/BPM_ADC.c ****             status = BPM_ADC_DEC_SR_REG & BPM_ADC_DEC_CONV_DONE;
ARM GAS  C:\Users\student\AppData\Local\Temp\ccHj2j2l.s 			page 13


 660:.\Generated_Source\PSoC5/BPM_ADC.c ****         }
 661:.\Generated_Source\PSoC5/BPM_ADC.c ****     }while((status != BPM_ADC_DEC_CONV_DONE) && (retMode == BPM_ADC_WAIT_FOR_RESULT));
 662:.\Generated_Source\PSoC5/BPM_ADC.c **** 
 663:.\Generated_Source\PSoC5/BPM_ADC.c ****     return(status);
 664:.\Generated_Source\PSoC5/BPM_ADC.c **** }
 665:.\Generated_Source\PSoC5/BPM_ADC.c **** 
 666:.\Generated_Source\PSoC5/BPM_ADC.c **** 
 667:.\Generated_Source\PSoC5/BPM_ADC.c **** /*******************************************************************************
 668:.\Generated_Source\PSoC5/BPM_ADC.c **** * Function Name: BPM_ADC_GetResult8
 669:.\Generated_Source\PSoC5/BPM_ADC.c **** ********************************************************************************
 670:.\Generated_Source\PSoC5/BPM_ADC.c **** *
 671:.\Generated_Source\PSoC5/BPM_ADC.c **** * Summary:
 672:.\Generated_Source\PSoC5/BPM_ADC.c **** *  This function returns the result of an 8-bit conversion. If the
 673:.\Generated_Source\PSoC5/BPM_ADC.c **** *  resolution is set greater than 8-bits, the LSB of the result will be
 674:.\Generated_Source\PSoC5/BPM_ADC.c **** *  returned. When the ADC is configured for 8-bit single ended mode,
 675:.\Generated_Source\PSoC5/BPM_ADC.c **** *  the ADC_GetResult16() function should be used instead. This
 676:.\Generated_Source\PSoC5/BPM_ADC.c **** *  function returns only signed 8-bit values. The maximum positive
 677:.\Generated_Source\PSoC5/BPM_ADC.c **** *  signed 8-bit value is 127, but in singled ended 8-bit mode, the
 678:.\Generated_Source\PSoC5/BPM_ADC.c **** *  maximum positive value is 255.
 679:.\Generated_Source\PSoC5/BPM_ADC.c **** *
 680:.\Generated_Source\PSoC5/BPM_ADC.c **** * Parameters:
 681:.\Generated_Source\PSoC5/BPM_ADC.c **** *  None
 682:.\Generated_Source\PSoC5/BPM_ADC.c **** *
 683:.\Generated_Source\PSoC5/BPM_ADC.c **** * Return:
 684:.\Generated_Source\PSoC5/BPM_ADC.c **** *  int8: The LSB of the last ADC conversion.
 685:.\Generated_Source\PSoC5/BPM_ADC.c **** *
 686:.\Generated_Source\PSoC5/BPM_ADC.c **** * Global variables:
 687:.\Generated_Source\PSoC5/BPM_ADC.c **** *  BPM_ADC_convDone:  Cleared in single sample mode with resolution
 688:.\Generated_Source\PSoC5/BPM_ADC.c **** *                              above 16 bits
 689:.\Generated_Source\PSoC5/BPM_ADC.c **** *
 690:.\Generated_Source\PSoC5/BPM_ADC.c **** *******************************************************************************/
 691:.\Generated_Source\PSoC5/BPM_ADC.c **** int8 BPM_ADC_GetResult8( void ) 
 692:.\Generated_Source\PSoC5/BPM_ADC.c **** {
 693:.\Generated_Source\PSoC5/BPM_ADC.c ****     int8 result;
 694:.\Generated_Source\PSoC5/BPM_ADC.c ****     uint8 coherency;
 695:.\Generated_Source\PSoC5/BPM_ADC.c **** 
 696:.\Generated_Source\PSoC5/BPM_ADC.c ****     /* Read active coherency configuration */
 697:.\Generated_Source\PSoC5/BPM_ADC.c ****     coherency = BPM_ADC_DEC_COHER_REG & BPM_ADC_DEC_SAMP_KEY_MASK;
 698:.\Generated_Source\PSoC5/BPM_ADC.c **** 
 699:.\Generated_Source\PSoC5/BPM_ADC.c ****     result = (int8)BPM_ADC_DEC_SAMP_REG;
 700:.\Generated_Source\PSoC5/BPM_ADC.c **** 
 701:.\Generated_Source\PSoC5/BPM_ADC.c ****     if(coherency == BPM_ADC_DEC_SAMP_KEY_MID)
 702:.\Generated_Source\PSoC5/BPM_ADC.c ****     {   /* Dummy read of the middle byte to unlock the coherency */
 703:.\Generated_Source\PSoC5/BPM_ADC.c ****         (void)BPM_ADC_DEC_SAMPM_REG;
 704:.\Generated_Source\PSoC5/BPM_ADC.c ****     }
 705:.\Generated_Source\PSoC5/BPM_ADC.c ****     else  if(coherency == BPM_ADC_DEC_SAMP_KEY_HIGH)
 706:.\Generated_Source\PSoC5/BPM_ADC.c ****     {   /* Dummy read of the MSB byte to unlock the coherency */
 707:.\Generated_Source\PSoC5/BPM_ADC.c ****         (void)BPM_ADC_DEC_SAMPH_REG;
 708:.\Generated_Source\PSoC5/BPM_ADC.c ****     }
 709:.\Generated_Source\PSoC5/BPM_ADC.c ****     else /*No action required for other coherency */
 710:.\Generated_Source\PSoC5/BPM_ADC.c ****     {
 711:.\Generated_Source\PSoC5/BPM_ADC.c ****     }
 712:.\Generated_Source\PSoC5/BPM_ADC.c ****     /* Clear conversion complete status in Single Sample mode with resolution above 16 bit */
 713:.\Generated_Source\PSoC5/BPM_ADC.c ****     if(BPM_ADC_stopConversion != 0u)
 714:.\Generated_Source\PSoC5/BPM_ADC.c ****     {
 715:.\Generated_Source\PSoC5/BPM_ADC.c ****         BPM_ADC_convDone = 0u;
 716:.\Generated_Source\PSoC5/BPM_ADC.c ****     }
ARM GAS  C:\Users\student\AppData\Local\Temp\ccHj2j2l.s 			page 14


 717:.\Generated_Source\PSoC5/BPM_ADC.c ****     return (result);
 718:.\Generated_Source\PSoC5/BPM_ADC.c **** }
 719:.\Generated_Source\PSoC5/BPM_ADC.c **** 
 720:.\Generated_Source\PSoC5/BPM_ADC.c **** 
 721:.\Generated_Source\PSoC5/BPM_ADC.c **** /*******************************************************************************
 722:.\Generated_Source\PSoC5/BPM_ADC.c **** * Function Name: BPM_ADC_GetResult16
 723:.\Generated_Source\PSoC5/BPM_ADC.c **** ********************************************************************************
 724:.\Generated_Source\PSoC5/BPM_ADC.c **** *
 725:.\Generated_Source\PSoC5/BPM_ADC.c **** * Summary:
 726:.\Generated_Source\PSoC5/BPM_ADC.c **** *  Returns a 16-bit result for a conversion with a result that has a
 727:.\Generated_Source\PSoC5/BPM_ADC.c **** *  resolution of 8 to 16 bits. If the resolution is set greater than 16-bits,
 728:.\Generated_Source\PSoC5/BPM_ADC.c **** *  it will return the 16 least significant bits of the result. When the ADC
 729:.\Generated_Source\PSoC5/BPM_ADC.c **** *  is configured for 16-bit single ended mode, the ADC_GetResult32()
 730:.\Generated_Source\PSoC5/BPM_ADC.c **** *  function should be used instead. This function returns only signed
 731:.\Generated_Source\PSoC5/BPM_ADC.c **** *  16-bit result, which allows a maximum positive value of 32767, not 65535.
 732:.\Generated_Source\PSoC5/BPM_ADC.c **** *  This function supports different coherency settings.
 733:.\Generated_Source\PSoC5/BPM_ADC.c **** *
 734:.\Generated_Source\PSoC5/BPM_ADC.c **** * Parameters:
 735:.\Generated_Source\PSoC5/BPM_ADC.c **** *   void
 736:.\Generated_Source\PSoC5/BPM_ADC.c **** *
 737:.\Generated_Source\PSoC5/BPM_ADC.c **** * Return:
 738:.\Generated_Source\PSoC5/BPM_ADC.c **** *  int16:  ADC result.
 739:.\Generated_Source\PSoC5/BPM_ADC.c **** *
 740:.\Generated_Source\PSoC5/BPM_ADC.c **** * Global variables:
 741:.\Generated_Source\PSoC5/BPM_ADC.c **** *  BPM_ADC_convDone:  Cleared in single sample mode with resolution
 742:.\Generated_Source\PSoC5/BPM_ADC.c **** *                              above 16 bits
 743:.\Generated_Source\PSoC5/BPM_ADC.c **** *
 744:.\Generated_Source\PSoC5/BPM_ADC.c **** *******************************************************************************/
 745:.\Generated_Source\PSoC5/BPM_ADC.c **** int16 BPM_ADC_GetResult16(void) 
 746:.\Generated_Source\PSoC5/BPM_ADC.c **** {
 747:.\Generated_Source\PSoC5/BPM_ADC.c ****     uint16 result;
 748:.\Generated_Source\PSoC5/BPM_ADC.c ****     uint8 coherency;
 749:.\Generated_Source\PSoC5/BPM_ADC.c **** 
 750:.\Generated_Source\PSoC5/BPM_ADC.c ****     /* Read active coherency configuration */
 751:.\Generated_Source\PSoC5/BPM_ADC.c ****     coherency = BPM_ADC_DEC_COHER_REG & BPM_ADC_DEC_SAMP_KEY_MASK;
 752:.\Generated_Source\PSoC5/BPM_ADC.c **** 
 753:.\Generated_Source\PSoC5/BPM_ADC.c ****     if(coherency <= BPM_ADC_DEC_SAMP_KEY_LOW)
 754:.\Generated_Source\PSoC5/BPM_ADC.c ****     {   /*  Use default method to read result registers i.e. LSB byte read at the end*/
 755:.\Generated_Source\PSoC5/BPM_ADC.c ****         #if (CY_PSOC3)
 756:.\Generated_Source\PSoC5/BPM_ADC.c ****             result = BPM_ADC_DEC_SAMPM_REG;
 757:.\Generated_Source\PSoC5/BPM_ADC.c ****             result = (result << 8u) | BPM_ADC_DEC_SAMP_REG;
 758:.\Generated_Source\PSoC5/BPM_ADC.c ****         #else
 759:.\Generated_Source\PSoC5/BPM_ADC.c ****             result = (CY_GET_REG16(BPM_ADC_DEC_SAMP_16B_PTR));
 760:.\Generated_Source\PSoC5/BPM_ADC.c ****         #endif /* CY_PSOC3 */
 761:.\Generated_Source\PSoC5/BPM_ADC.c ****     }
 762:.\Generated_Source\PSoC5/BPM_ADC.c ****     else /* MID or HIGH */
 763:.\Generated_Source\PSoC5/BPM_ADC.c ****     {   /* Read middle byte at the end */
 764:.\Generated_Source\PSoC5/BPM_ADC.c ****         #if (CY_PSOC3)
 765:.\Generated_Source\PSoC5/BPM_ADC.c ****             result = (CY_GET_REG16(BPM_ADC_DEC_SAMP_16B_PTR));
 766:.\Generated_Source\PSoC5/BPM_ADC.c ****         #else
 767:.\Generated_Source\PSoC5/BPM_ADC.c ****             result = BPM_ADC_DEC_SAMP_REG;
 768:.\Generated_Source\PSoC5/BPM_ADC.c ****             result |=  (uint16)((uint16)BPM_ADC_DEC_SAMPM_REG << 8u);
 769:.\Generated_Source\PSoC5/BPM_ADC.c ****         #endif /* CY_PSOC3 */
 770:.\Generated_Source\PSoC5/BPM_ADC.c ****         if(coherency == BPM_ADC_DEC_SAMP_KEY_HIGH)
 771:.\Generated_Source\PSoC5/BPM_ADC.c ****         {   /* Dummy read of the MSB byte to unlock the coherency */
 772:.\Generated_Source\PSoC5/BPM_ADC.c ****             (void)BPM_ADC_DEC_SAMPH_REG;
 773:.\Generated_Source\PSoC5/BPM_ADC.c ****         }
ARM GAS  C:\Users\student\AppData\Local\Temp\ccHj2j2l.s 			page 15


 774:.\Generated_Source\PSoC5/BPM_ADC.c ****     }
 775:.\Generated_Source\PSoC5/BPM_ADC.c ****     /* Clear conversion complete status in Single Sample mode with resolution above 16 bit */
 776:.\Generated_Source\PSoC5/BPM_ADC.c ****     if(BPM_ADC_stopConversion != 0u)
 777:.\Generated_Source\PSoC5/BPM_ADC.c ****     {
 778:.\Generated_Source\PSoC5/BPM_ADC.c ****         BPM_ADC_convDone = 0u;
 779:.\Generated_Source\PSoC5/BPM_ADC.c ****     }
 780:.\Generated_Source\PSoC5/BPM_ADC.c **** 
 781:.\Generated_Source\PSoC5/BPM_ADC.c ****     return ((int16)result);
 782:.\Generated_Source\PSoC5/BPM_ADC.c **** }
 783:.\Generated_Source\PSoC5/BPM_ADC.c **** 
 784:.\Generated_Source\PSoC5/BPM_ADC.c **** 
 785:.\Generated_Source\PSoC5/BPM_ADC.c **** /*******************************************************************************
 786:.\Generated_Source\PSoC5/BPM_ADC.c **** * Function Name: BPM_ADC_GetResult32
 787:.\Generated_Source\PSoC5/BPM_ADC.c **** ********************************************************************************
 788:.\Generated_Source\PSoC5/BPM_ADC.c **** *
 789:.\Generated_Source\PSoC5/BPM_ADC.c **** * Summary:
 790:.\Generated_Source\PSoC5/BPM_ADC.c **** *  Returns a 32-bit result for a conversion with a result that has a
 791:.\Generated_Source\PSoC5/BPM_ADC.c **** *  resolution of 8 to 20 bits.
 792:.\Generated_Source\PSoC5/BPM_ADC.c **** *  This function supports different coherency settings.
 793:.\Generated_Source\PSoC5/BPM_ADC.c **** *
 794:.\Generated_Source\PSoC5/BPM_ADC.c **** * Parameters:
 795:.\Generated_Source\PSoC5/BPM_ADC.c **** *  None
 796:.\Generated_Source\PSoC5/BPM_ADC.c **** *
 797:.\Generated_Source\PSoC5/BPM_ADC.c **** * Return:
 798:.\Generated_Source\PSoC5/BPM_ADC.c **** *  int32: Result of the last ADC conversion.
 799:.\Generated_Source\PSoC5/BPM_ADC.c **** *
 800:.\Generated_Source\PSoC5/BPM_ADC.c **** * Global variables:
 801:.\Generated_Source\PSoC5/BPM_ADC.c **** *  BPM_ADC_convDone:  Cleared in single sample mode with resolution
 802:.\Generated_Source\PSoC5/BPM_ADC.c **** *                              above 16 bits
 803:.\Generated_Source\PSoC5/BPM_ADC.c **** *
 804:.\Generated_Source\PSoC5/BPM_ADC.c **** *******************************************************************************/
 805:.\Generated_Source\PSoC5/BPM_ADC.c **** int32 BPM_ADC_GetResult32(void) 
 806:.\Generated_Source\PSoC5/BPM_ADC.c **** {
 807:.\Generated_Source\PSoC5/BPM_ADC.c ****     uint32 result;
 808:.\Generated_Source\PSoC5/BPM_ADC.c ****     uint8 coherency;
 809:.\Generated_Source\PSoC5/BPM_ADC.c ****     #if (CY_PSOC3)
 810:.\Generated_Source\PSoC5/BPM_ADC.c **** 	    uint16 tmp;
 811:.\Generated_Source\PSoC5/BPM_ADC.c ****     #endif /* CY_PSOC3 */
 812:.\Generated_Source\PSoC5/BPM_ADC.c **** 
 813:.\Generated_Source\PSoC5/BPM_ADC.c ****     /* Read active coherency configuration */
 814:.\Generated_Source\PSoC5/BPM_ADC.c ****     coherency = BPM_ADC_DEC_COHER_REG & BPM_ADC_DEC_SAMP_KEY_MASK;
 815:.\Generated_Source\PSoC5/BPM_ADC.c **** 
 816:.\Generated_Source\PSoC5/BPM_ADC.c ****     if(coherency <= BPM_ADC_DEC_SAMP_KEY_LOW)
 817:.\Generated_Source\PSoC5/BPM_ADC.c ****     {   /*  Use default method to read result registers i.e. LSB byte read at the end*/
 818:.\Generated_Source\PSoC5/BPM_ADC.c ****         #if (CY_PSOC3)
 819:.\Generated_Source\PSoC5/BPM_ADC.c ****             result = BPM_ADC_DEC_SAMPH_REG;
 820:.\Generated_Source\PSoC5/BPM_ADC.c ****             if((result & 0x80u) != 0u)
 821:.\Generated_Source\PSoC5/BPM_ADC.c ****             {   /* Sign extend */
 822:.\Generated_Source\PSoC5/BPM_ADC.c ****                 result |= 0xFF00u;
 823:.\Generated_Source\PSoC5/BPM_ADC.c ****             }
 824:.\Generated_Source\PSoC5/BPM_ADC.c ****             result = (result << 8u) | BPM_ADC_DEC_SAMPM_REG;
 825:.\Generated_Source\PSoC5/BPM_ADC.c ****             result = (result << 8u) | BPM_ADC_DEC_SAMP_REG;
 826:.\Generated_Source\PSoC5/BPM_ADC.c ****         #else
 827:.\Generated_Source\PSoC5/BPM_ADC.c ****             result = CY_GET_REG16(BPM_ADC_DEC_SAMPH_16B_PTR);
 828:.\Generated_Source\PSoC5/BPM_ADC.c ****             result = (result << 16u) | (CY_GET_REG16(BPM_ADC_DEC_SAMP_16B_PTR));
 829:.\Generated_Source\PSoC5/BPM_ADC.c ****         #endif /* CY_PSOC3 */
 830:.\Generated_Source\PSoC5/BPM_ADC.c ****     }
ARM GAS  C:\Users\student\AppData\Local\Temp\ccHj2j2l.s 			page 16


 831:.\Generated_Source\PSoC5/BPM_ADC.c ****     else if(coherency == BPM_ADC_DEC_SAMP_KEY_MID)
 832:.\Generated_Source\PSoC5/BPM_ADC.c ****     {   /* Read middle byte at the end */
 833:.\Generated_Source\PSoC5/BPM_ADC.c ****         #if (CY_PSOC3)
 834:.\Generated_Source\PSoC5/BPM_ADC.c ****             result = BPM_ADC_DEC_SAMPH_REG;
 835:.\Generated_Source\PSoC5/BPM_ADC.c ****             if((result & 0x80u) != 0u)
 836:.\Generated_Source\PSoC5/BPM_ADC.c ****             {   /* Sign extend */
 837:.\Generated_Source\PSoC5/BPM_ADC.c ****                 result |= 0xFF00u;
 838:.\Generated_Source\PSoC5/BPM_ADC.c ****             }
 839:.\Generated_Source\PSoC5/BPM_ADC.c ****             result = (result << 16u) | (CY_GET_REG16(BPM_ADC_DEC_SAMP_16B_PTR));
 840:.\Generated_Source\PSoC5/BPM_ADC.c ****         #else
 841:.\Generated_Source\PSoC5/BPM_ADC.c ****             result = CY_GET_REG16(BPM_ADC_DEC_SAMPH_16B_PTR);
 842:.\Generated_Source\PSoC5/BPM_ADC.c ****             result = (result << 16u) | BPM_ADC_DEC_SAMP_REG;
 843:.\Generated_Source\PSoC5/BPM_ADC.c ****             result |=  (uint32)((uint32)BPM_ADC_DEC_SAMPM_REG << 8u);
 844:.\Generated_Source\PSoC5/BPM_ADC.c ****         #endif /* CY_PSOC3 */
 845:.\Generated_Source\PSoC5/BPM_ADC.c ****     }
 846:.\Generated_Source\PSoC5/BPM_ADC.c ****     else /*BPM_ADC_DEC_SAMP_KEY_HIGH */
 847:.\Generated_Source\PSoC5/BPM_ADC.c ****     {
 848:.\Generated_Source\PSoC5/BPM_ADC.c ****         /* Read MSB byte at the end */
 849:.\Generated_Source\PSoC5/BPM_ADC.c ****         #if (CY_PSOC3)
 850:.\Generated_Source\PSoC5/BPM_ADC.c ****             result = CY_GET_REG16(BPM_ADC_DEC_SAMP_16B_PTR);
 851:.\Generated_Source\PSoC5/BPM_ADC.c **** 			tmp = BPM_ADC_DEC_SAMPH_REG;
 852:.\Generated_Source\PSoC5/BPM_ADC.c ****             if((tmp & 0x80u) != 0u)
 853:.\Generated_Source\PSoC5/BPM_ADC.c ****             {   /* Sign extend */
 854:.\Generated_Source\PSoC5/BPM_ADC.c ****                 tmp |= 0xFF00u;
 855:.\Generated_Source\PSoC5/BPM_ADC.c ****             }
 856:.\Generated_Source\PSoC5/BPM_ADC.c ****             result |= (uint32)tmp << 16u;
 857:.\Generated_Source\PSoC5/BPM_ADC.c ****         #else
 858:.\Generated_Source\PSoC5/BPM_ADC.c ****             result = CY_GET_REG16(BPM_ADC_DEC_SAMP_16B_PTR);
 859:.\Generated_Source\PSoC5/BPM_ADC.c ****             result |= (uint32)((uint32)CY_GET_REG16(BPM_ADC_DEC_SAMPH_16B_PTR) << 16u);
 860:.\Generated_Source\PSoC5/BPM_ADC.c ****         #endif /* CY_PSOC3 */
 861:.\Generated_Source\PSoC5/BPM_ADC.c ****     }
 862:.\Generated_Source\PSoC5/BPM_ADC.c ****     /* Clear conversion complete status in Single Sample mode with resolution above 16 bit */
 863:.\Generated_Source\PSoC5/BPM_ADC.c ****     if(BPM_ADC_stopConversion != 0u)
 864:.\Generated_Source\PSoC5/BPM_ADC.c ****     {
 865:.\Generated_Source\PSoC5/BPM_ADC.c ****         BPM_ADC_convDone = 0u;
 866:.\Generated_Source\PSoC5/BPM_ADC.c ****     }
 867:.\Generated_Source\PSoC5/BPM_ADC.c **** 
 868:.\Generated_Source\PSoC5/BPM_ADC.c ****     return ((int32)result);
 869:.\Generated_Source\PSoC5/BPM_ADC.c **** }
 870:.\Generated_Source\PSoC5/BPM_ADC.c **** 
 871:.\Generated_Source\PSoC5/BPM_ADC.c **** 
 872:.\Generated_Source\PSoC5/BPM_ADC.c **** /*******************************************************************************
 873:.\Generated_Source\PSoC5/BPM_ADC.c **** * Function Name: BPM_ADC_SetOffset
 874:.\Generated_Source\PSoC5/BPM_ADC.c **** ********************************************************************************
 875:.\Generated_Source\PSoC5/BPM_ADC.c **** *
 876:.\Generated_Source\PSoC5/BPM_ADC.c **** * Summary:
 877:.\Generated_Source\PSoC5/BPM_ADC.c **** *  Sets the ADC offset which is used by the functions ADC_CountsTo_uVolts, 
 878:.\Generated_Source\PSoC5/BPM_ADC.c **** *  ADC_CountsTo_mVolts, and ADC_CountsTo_Volts to subtract the offset from the 
 879:.\Generated_Source\PSoC5/BPM_ADC.c **** *  given reading before calculating the voltage conversion.
 880:.\Generated_Source\PSoC5/BPM_ADC.c **** *
 881:.\Generated_Source\PSoC5/BPM_ADC.c **** * Parameters:
 882:.\Generated_Source\PSoC5/BPM_ADC.c **** *  int32:  This value is a measured value when the inputs are shorted or 
 883:.\Generated_Source\PSoC5/BPM_ADC.c **** *          connected to the same input voltage.
 884:.\Generated_Source\PSoC5/BPM_ADC.c **** *
 885:.\Generated_Source\PSoC5/BPM_ADC.c **** * Return:
 886:.\Generated_Source\PSoC5/BPM_ADC.c **** *  None
 887:.\Generated_Source\PSoC5/BPM_ADC.c **** *
ARM GAS  C:\Users\student\AppData\Local\Temp\ccHj2j2l.s 			page 17


 888:.\Generated_Source\PSoC5/BPM_ADC.c **** * Global variables:
 889:.\Generated_Source\PSoC5/BPM_ADC.c **** *  BPM_ADC_Offset:  Modified to set the user provided offset. This
 890:.\Generated_Source\PSoC5/BPM_ADC.c **** *  variable is used for offset calibration purpose.
 891:.\Generated_Source\PSoC5/BPM_ADC.c **** *
 892:.\Generated_Source\PSoC5/BPM_ADC.c **** * Side Effects:
 893:.\Generated_Source\PSoC5/BPM_ADC.c **** *  Affects the BPM_ADC_CountsTo_Volts,
 894:.\Generated_Source\PSoC5/BPM_ADC.c **** *  BPM_ADC_CountsTo_mVolts, BPM_ADC_CountsTo_uVolts functions
 895:.\Generated_Source\PSoC5/BPM_ADC.c **** *  by subtracting the given offset.
 896:.\Generated_Source\PSoC5/BPM_ADC.c **** *
 897:.\Generated_Source\PSoC5/BPM_ADC.c **** *******************************************************************************/
 898:.\Generated_Source\PSoC5/BPM_ADC.c **** void BPM_ADC_SetOffset(int32 offset) 
 899:.\Generated_Source\PSoC5/BPM_ADC.c **** {
 900:.\Generated_Source\PSoC5/BPM_ADC.c **** 
 901:.\Generated_Source\PSoC5/BPM_ADC.c ****     BPM_ADC_Offset = offset;
 902:.\Generated_Source\PSoC5/BPM_ADC.c **** }
 903:.\Generated_Source\PSoC5/BPM_ADC.c **** 
 904:.\Generated_Source\PSoC5/BPM_ADC.c **** 
 905:.\Generated_Source\PSoC5/BPM_ADC.c **** /*******************************************************************************
 906:.\Generated_Source\PSoC5/BPM_ADC.c **** * Function Name: BPM_ADC_SetGain
 907:.\Generated_Source\PSoC5/BPM_ADC.c **** ********************************************************************************
 908:.\Generated_Source\PSoC5/BPM_ADC.c **** *
 909:.\Generated_Source\PSoC5/BPM_ADC.c **** * Summary:
 910:.\Generated_Source\PSoC5/BPM_ADC.c **** *  Sets the ADC gain in counts per volt for the voltage conversion
 911:.\Generated_Source\PSoC5/BPM_ADC.c **** *  functions below. This value is set by default by the reference and
 912:.\Generated_Source\PSoC5/BPM_ADC.c **** *  input range settings. It should only be used to further calibrate the
 913:.\Generated_Source\PSoC5/BPM_ADC.c **** *  ADC with a known input or if an external reference is used. This
 914:.\Generated_Source\PSoC5/BPM_ADC.c **** *  function may also be used to calibrate an entire signal chain, not
 915:.\Generated_Source\PSoC5/BPM_ADC.c **** *  just the ADC.
 916:.\Generated_Source\PSoC5/BPM_ADC.c **** *
 917:.\Generated_Source\PSoC5/BPM_ADC.c **** * Parameters:
 918:.\Generated_Source\PSoC5/BPM_ADC.c **** *  int32: ADC gain in counts per volt.
 919:.\Generated_Source\PSoC5/BPM_ADC.c **** *
 920:.\Generated_Source\PSoC5/BPM_ADC.c **** * Return:
 921:.\Generated_Source\PSoC5/BPM_ADC.c **** *  None
 922:.\Generated_Source\PSoC5/BPM_ADC.c **** *
 923:.\Generated_Source\PSoC5/BPM_ADC.c **** * Global variables:
 924:.\Generated_Source\PSoC5/BPM_ADC.c **** *  BPM_ADC_CountsPerVolt:  modified to set the ADC gain in counts
 925:.\Generated_Source\PSoC5/BPM_ADC.c **** *   per volt.
 926:.\Generated_Source\PSoC5/BPM_ADC.c **** *
 927:.\Generated_Source\PSoC5/BPM_ADC.c **** * Side Effects:
 928:.\Generated_Source\PSoC5/BPM_ADC.c **** *  Affects the BPM_ADC_CountsTo_Volts,
 929:.\Generated_Source\PSoC5/BPM_ADC.c **** *  BPM_ADC_CountsTo_mVolts, BPM_ADC_CountsTo_uVolts functions
 930:.\Generated_Source\PSoC5/BPM_ADC.c **** *  supplying the correct conversion between ADC counts and voltage.
 931:.\Generated_Source\PSoC5/BPM_ADC.c **** *
 932:.\Generated_Source\PSoC5/BPM_ADC.c **** *******************************************************************************/
 933:.\Generated_Source\PSoC5/BPM_ADC.c **** void BPM_ADC_SetGain(int32 adcGain) 
 934:.\Generated_Source\PSoC5/BPM_ADC.c **** {
 935:.\Generated_Source\PSoC5/BPM_ADC.c ****     BPM_ADC_CountsPerVolt = adcGain;
 936:.\Generated_Source\PSoC5/BPM_ADC.c **** }
 937:.\Generated_Source\PSoC5/BPM_ADC.c **** 
 938:.\Generated_Source\PSoC5/BPM_ADC.c **** 
 939:.\Generated_Source\PSoC5/BPM_ADC.c **** /*******************************************************************************
 940:.\Generated_Source\PSoC5/BPM_ADC.c **** * Function Name: BPM_ADC_CountsTo_mVolts
 941:.\Generated_Source\PSoC5/BPM_ADC.c **** ********************************************************************************
 942:.\Generated_Source\PSoC5/BPM_ADC.c **** *
 943:.\Generated_Source\PSoC5/BPM_ADC.c **** * Summary:
 944:.\Generated_Source\PSoC5/BPM_ADC.c **** *  Converts the ADC counts output to mVolts as a 16-bit integer. For
ARM GAS  C:\Users\student\AppData\Local\Temp\ccHj2j2l.s 			page 18


 945:.\Generated_Source\PSoC5/BPM_ADC.c **** *  example, if the ADC measured 0.534 volts, the return value would
 946:.\Generated_Source\PSoC5/BPM_ADC.c **** *  be 534 mVolts.
 947:.\Generated_Source\PSoC5/BPM_ADC.c **** *
 948:.\Generated_Source\PSoC5/BPM_ADC.c **** * Parameters:
 949:.\Generated_Source\PSoC5/BPM_ADC.c **** *  int32: adcCounts Result from the ADC conversion.
 950:.\Generated_Source\PSoC5/BPM_ADC.c **** *
 951:.\Generated_Source\PSoC5/BPM_ADC.c **** * Return:
 952:.\Generated_Source\PSoC5/BPM_ADC.c **** *  int16:  Result in mVolts
 953:.\Generated_Source\PSoC5/BPM_ADC.c **** *
 954:.\Generated_Source\PSoC5/BPM_ADC.c **** * Global variables:
 955:.\Generated_Source\PSoC5/BPM_ADC.c **** *  BPM_ADC_CountsPerVolt:  used to convert ADC counts to mVolts.
 956:.\Generated_Source\PSoC5/BPM_ADC.c **** *  BPM_ADC_Offset:  Used as the offset while converting ADC counts
 957:.\Generated_Source\PSoC5/BPM_ADC.c **** *   to mVolts.
 958:.\Generated_Source\PSoC5/BPM_ADC.c **** *
 959:.\Generated_Source\PSoC5/BPM_ADC.c **** *******************************************************************************/
 960:.\Generated_Source\PSoC5/BPM_ADC.c **** int16 BPM_ADC_CountsTo_mVolts(int32 adcCounts) 
 961:.\Generated_Source\PSoC5/BPM_ADC.c **** {
 962:.\Generated_Source\PSoC5/BPM_ADC.c **** 
 963:.\Generated_Source\PSoC5/BPM_ADC.c ****     int16 mVolts;
 964:.\Generated_Source\PSoC5/BPM_ADC.c **** 
 965:.\Generated_Source\PSoC5/BPM_ADC.c ****     /* Convert adcCounts to the right align if left option selected */
 966:.\Generated_Source\PSoC5/BPM_ADC.c ****     #if(BPM_ADC_CFG1_DEC_DIV != 0)
 967:.\Generated_Source\PSoC5/BPM_ADC.c ****         if(BPM_ADC_Config == BPM_ADC_CFG1)
 968:.\Generated_Source\PSoC5/BPM_ADC.c ****         {
 969:.\Generated_Source\PSoC5/BPM_ADC.c ****             adcCounts /= BPM_ADC_CFG1_DEC_DIV;
 970:.\Generated_Source\PSoC5/BPM_ADC.c ****         }
 971:.\Generated_Source\PSoC5/BPM_ADC.c ****     #endif /* BPM_ADC_CFG1_DEC_DIV */
 972:.\Generated_Source\PSoC5/BPM_ADC.c ****     #if((BPM_ADC_CFG2_DEC_DIV != 0) && (BPM_ADC_DEFAULT_NUM_CONFIGS > 1))
 973:.\Generated_Source\PSoC5/BPM_ADC.c ****         if(BPM_ADC_Config == BPM_ADC_CFG2)
 974:.\Generated_Source\PSoC5/BPM_ADC.c ****         {
 975:.\Generated_Source\PSoC5/BPM_ADC.c ****             adcCounts /= BPM_ADC_CFG2_DEC_DIV;
 976:.\Generated_Source\PSoC5/BPM_ADC.c ****         }
 977:.\Generated_Source\PSoC5/BPM_ADC.c ****     #endif /* BPM_ADC_CFG2_DEC_DIV */
 978:.\Generated_Source\PSoC5/BPM_ADC.c ****     #if((BPM_ADC_CFG3_DEC_DIV != 0) && (BPM_ADC_DEFAULT_NUM_CONFIGS > 2))
 979:.\Generated_Source\PSoC5/BPM_ADC.c ****         if(BPM_ADC_Config == BPM_ADC_CFG3)
 980:.\Generated_Source\PSoC5/BPM_ADC.c ****         {
 981:.\Generated_Source\PSoC5/BPM_ADC.c ****             adcCounts /= BPM_ADC_CFG3_DEC_DIV;
 982:.\Generated_Source\PSoC5/BPM_ADC.c ****         }
 983:.\Generated_Source\PSoC5/BPM_ADC.c ****     #endif /* BPM_ADC_CFG2_DEC_DIV */
 984:.\Generated_Source\PSoC5/BPM_ADC.c ****     #if((BPM_ADC_CFG4_DEC_DIV != 0) && (BPM_ADC_DEFAULT_NUM_CONFIGS > 3))
 985:.\Generated_Source\PSoC5/BPM_ADC.c ****         if(BPM_ADC_Config == BPM_ADC_CFG4)
 986:.\Generated_Source\PSoC5/BPM_ADC.c ****         {
 987:.\Generated_Source\PSoC5/BPM_ADC.c ****             adcCounts /= BPM_ADC_CFG4_DEC_DIV;
 988:.\Generated_Source\PSoC5/BPM_ADC.c ****         }
 989:.\Generated_Source\PSoC5/BPM_ADC.c ****     #endif /* BPM_ADC_CFG2_DEC_DIV */
 990:.\Generated_Source\PSoC5/BPM_ADC.c **** 
 991:.\Generated_Source\PSoC5/BPM_ADC.c ****     /* Subtract ADC offset */
 992:.\Generated_Source\PSoC5/BPM_ADC.c ****     adcCounts -= BPM_ADC_Offset;
 993:.\Generated_Source\PSoC5/BPM_ADC.c **** 
 994:.\Generated_Source\PSoC5/BPM_ADC.c ****     mVolts = (int16)(( adcCounts * BPM_ADC_1MV_COUNTS ) / BPM_ADC_CountsPerVolt) ;
 995:.\Generated_Source\PSoC5/BPM_ADC.c **** 
 996:.\Generated_Source\PSoC5/BPM_ADC.c ****     return(mVolts);
 997:.\Generated_Source\PSoC5/BPM_ADC.c **** }
 998:.\Generated_Source\PSoC5/BPM_ADC.c **** 
 999:.\Generated_Source\PSoC5/BPM_ADC.c **** 
1000:.\Generated_Source\PSoC5/BPM_ADC.c **** /*******************************************************************************
1001:.\Generated_Source\PSoC5/BPM_ADC.c **** * Function Name: BPM_ADC_CountsTo_Volts
ARM GAS  C:\Users\student\AppData\Local\Temp\ccHj2j2l.s 			page 19


1002:.\Generated_Source\PSoC5/BPM_ADC.c **** ********************************************************************************
1003:.\Generated_Source\PSoC5/BPM_ADC.c **** *
1004:.\Generated_Source\PSoC5/BPM_ADC.c **** * Summary:
1005:.\Generated_Source\PSoC5/BPM_ADC.c **** *  Converts the ADC output to Volts as a floating point number. For
1006:.\Generated_Source\PSoC5/BPM_ADC.c **** *  example, if the ADC measure a voltage of 1.2345 Volts, the
1007:.\Generated_Source\PSoC5/BPM_ADC.c **** *  returned result would be +1.2345 Volts.
1008:.\Generated_Source\PSoC5/BPM_ADC.c **** *
1009:.\Generated_Source\PSoC5/BPM_ADC.c **** * Parameters:
1010:.\Generated_Source\PSoC5/BPM_ADC.c **** *  int32 adcCounts:  Result from the ADC conversion.
1011:.\Generated_Source\PSoC5/BPM_ADC.c **** *
1012:.\Generated_Source\PSoC5/BPM_ADC.c **** * Return:
1013:.\Generated_Source\PSoC5/BPM_ADC.c **** *  float32: Result in Volts
1014:.\Generated_Source\PSoC5/BPM_ADC.c **** *
1015:.\Generated_Source\PSoC5/BPM_ADC.c **** * Global variables:
1016:.\Generated_Source\PSoC5/BPM_ADC.c **** *  BPM_ADC_CountsPerVolt:  used to convert to Volts.
1017:.\Generated_Source\PSoC5/BPM_ADC.c **** *  BPM_ADC_Offset:  Used as the offset while converting ADC counts
1018:.\Generated_Source\PSoC5/BPM_ADC.c **** *   to Volts.
1019:.\Generated_Source\PSoC5/BPM_ADC.c **** *
1020:.\Generated_Source\PSoC5/BPM_ADC.c **** *******************************************************************************/
1021:.\Generated_Source\PSoC5/BPM_ADC.c **** float32 BPM_ADC_CountsTo_Volts(int32 adcCounts) 
1022:.\Generated_Source\PSoC5/BPM_ADC.c **** {
1023:.\Generated_Source\PSoC5/BPM_ADC.c **** 
1024:.\Generated_Source\PSoC5/BPM_ADC.c ****     float32 Volts;
1025:.\Generated_Source\PSoC5/BPM_ADC.c **** 
1026:.\Generated_Source\PSoC5/BPM_ADC.c ****     /* Convert adcCounts to the right align if left option selected */
1027:.\Generated_Source\PSoC5/BPM_ADC.c ****     #if(BPM_ADC_CFG1_DEC_DIV != 0)
1028:.\Generated_Source\PSoC5/BPM_ADC.c ****         if(BPM_ADC_Config == BPM_ADC_CFG1)
1029:.\Generated_Source\PSoC5/BPM_ADC.c ****         {
1030:.\Generated_Source\PSoC5/BPM_ADC.c ****             adcCounts /= BPM_ADC_CFG1_DEC_DIV;
1031:.\Generated_Source\PSoC5/BPM_ADC.c ****         }
1032:.\Generated_Source\PSoC5/BPM_ADC.c ****     #endif /* BPM_ADC_CFG1_DEC_DIV */
1033:.\Generated_Source\PSoC5/BPM_ADC.c ****     #if((BPM_ADC_CFG2_DEC_DIV != 0) && (BPM_ADC_DEFAULT_NUM_CONFIGS > 1))
1034:.\Generated_Source\PSoC5/BPM_ADC.c ****         if(BPM_ADC_Config == BPM_ADC_CFG2)
1035:.\Generated_Source\PSoC5/BPM_ADC.c ****         {
1036:.\Generated_Source\PSoC5/BPM_ADC.c ****             adcCounts /= BPM_ADC_CFG2_DEC_DIV;
1037:.\Generated_Source\PSoC5/BPM_ADC.c ****         }
1038:.\Generated_Source\PSoC5/BPM_ADC.c ****     #endif /* BPM_ADC_CFG2_DEC_DIV */
1039:.\Generated_Source\PSoC5/BPM_ADC.c ****     #if((BPM_ADC_CFG3_DEC_DIV != 0) && (BPM_ADC_DEFAULT_NUM_CONFIGS > 2))
1040:.\Generated_Source\PSoC5/BPM_ADC.c ****         if(BPM_ADC_Config == BPM_ADC_CFG3)
1041:.\Generated_Source\PSoC5/BPM_ADC.c ****         {
1042:.\Generated_Source\PSoC5/BPM_ADC.c ****             adcCounts /= BPM_ADC_CFG3_DEC_DIV;
1043:.\Generated_Source\PSoC5/BPM_ADC.c ****         }
1044:.\Generated_Source\PSoC5/BPM_ADC.c ****     #endif /* BPM_ADC_CFG2_DEC_DIV */
1045:.\Generated_Source\PSoC5/BPM_ADC.c ****     #if((BPM_ADC_CFG4_DEC_DIV != 0) && (BPM_ADC_DEFAULT_NUM_CONFIGS > 3))
1046:.\Generated_Source\PSoC5/BPM_ADC.c ****         if(BPM_ADC_Config == BPM_ADC_CFG4)
1047:.\Generated_Source\PSoC5/BPM_ADC.c ****         {
1048:.\Generated_Source\PSoC5/BPM_ADC.c ****             adcCounts /= BPM_ADC_CFG4_DEC_DIV;
1049:.\Generated_Source\PSoC5/BPM_ADC.c ****         }
1050:.\Generated_Source\PSoC5/BPM_ADC.c ****     #endif /* BPM_ADC_CFG2_DEC_DIV */
1051:.\Generated_Source\PSoC5/BPM_ADC.c **** 
1052:.\Generated_Source\PSoC5/BPM_ADC.c ****     /* Subtract ADC offset */
1053:.\Generated_Source\PSoC5/BPM_ADC.c ****     adcCounts -= BPM_ADC_Offset;
1054:.\Generated_Source\PSoC5/BPM_ADC.c **** 
1055:.\Generated_Source\PSoC5/BPM_ADC.c ****     Volts = (float32)adcCounts / (float32)BPM_ADC_CountsPerVolt;
1056:.\Generated_Source\PSoC5/BPM_ADC.c **** 
1057:.\Generated_Source\PSoC5/BPM_ADC.c ****     return( Volts );
1058:.\Generated_Source\PSoC5/BPM_ADC.c **** }
ARM GAS  C:\Users\student\AppData\Local\Temp\ccHj2j2l.s 			page 20


1059:.\Generated_Source\PSoC5/BPM_ADC.c **** 
1060:.\Generated_Source\PSoC5/BPM_ADC.c **** 
1061:.\Generated_Source\PSoC5/BPM_ADC.c **** /*******************************************************************************
1062:.\Generated_Source\PSoC5/BPM_ADC.c **** * Function Name: BPM_ADC_CountsTo_uVolts
1063:.\Generated_Source\PSoC5/BPM_ADC.c **** ********************************************************************************
1064:.\Generated_Source\PSoC5/BPM_ADC.c **** *
1065:.\Generated_Source\PSoC5/BPM_ADC.c **** * Summary:
1066:.\Generated_Source\PSoC5/BPM_ADC.c **** *  Converts the ADC output to uVolts as a 32-bit integer. For example,
1067:.\Generated_Source\PSoC5/BPM_ADC.c **** *  if the ADC measured -0.02345 Volts, the return value would be -23450 uVolts.
1068:.\Generated_Source\PSoC5/BPM_ADC.c **** *
1069:.\Generated_Source\PSoC5/BPM_ADC.c **** * Parameters:
1070:.\Generated_Source\PSoC5/BPM_ADC.c **** *  int32 adcCounts: Result from the ADC conversion.
1071:.\Generated_Source\PSoC5/BPM_ADC.c **** *
1072:.\Generated_Source\PSoC5/BPM_ADC.c **** * Return:
1073:.\Generated_Source\PSoC5/BPM_ADC.c **** *  int32:  Result in uVolts
1074:.\Generated_Source\PSoC5/BPM_ADC.c **** *
1075:.\Generated_Source\PSoC5/BPM_ADC.c **** * Global variables:
1076:.\Generated_Source\PSoC5/BPM_ADC.c **** *  BPM_ADC_CountsPerVolt:  used to convert ADC counts to mVolts.
1077:.\Generated_Source\PSoC5/BPM_ADC.c **** *  BPM_ADC_Offset:  Used as the offset while converting ADC counts
1078:.\Generated_Source\PSoC5/BPM_ADC.c **** *   to mVolts.
1079:.\Generated_Source\PSoC5/BPM_ADC.c **** *
1080:.\Generated_Source\PSoC5/BPM_ADC.c **** * Theory:
1081:.\Generated_Source\PSoC5/BPM_ADC.c **** *  Care must be taken to not exceed the maximum value for a 31 bit signed
1082:.\Generated_Source\PSoC5/BPM_ADC.c **** *  number in the conversion to uVolts and at the same time not lose resolution.
1083:.\Generated_Source\PSoC5/BPM_ADC.c **** *
1084:.\Generated_Source\PSoC5/BPM_ADC.c **** *  uVolts = ((A * adcCounts) / ((int32)BPM_ADC_CountsPerVolt / B));
1085:.\Generated_Source\PSoC5/BPM_ADC.c **** *
1086:.\Generated_Source\PSoC5/BPM_ADC.c **** *******************************************************************************/
1087:.\Generated_Source\PSoC5/BPM_ADC.c **** int32 BPM_ADC_CountsTo_uVolts(int32 adcCounts) 
1088:.\Generated_Source\PSoC5/BPM_ADC.c **** {
1089:.\Generated_Source\PSoC5/BPM_ADC.c **** 
1090:.\Generated_Source\PSoC5/BPM_ADC.c ****     int32 uVolts;
1091:.\Generated_Source\PSoC5/BPM_ADC.c ****     int32 coefA;
1092:.\Generated_Source\PSoC5/BPM_ADC.c ****     int32 coefB;
1093:.\Generated_Source\PSoC5/BPM_ADC.c ****     uint8 resolution;
1094:.\Generated_Source\PSoC5/BPM_ADC.c **** 
1095:.\Generated_Source\PSoC5/BPM_ADC.c ****     /* Set the resolution based on the configuration */
1096:.\Generated_Source\PSoC5/BPM_ADC.c ****     /* Convert adcCounts to the right align if left option selected */
1097:.\Generated_Source\PSoC5/BPM_ADC.c ****     if (BPM_ADC_Config == BPM_ADC_CFG1)
1098:.\Generated_Source\PSoC5/BPM_ADC.c ****     {
1099:.\Generated_Source\PSoC5/BPM_ADC.c ****         resolution = BPM_ADC_CFG1_RESOLUTION;
1100:.\Generated_Source\PSoC5/BPM_ADC.c ****         #if(BPM_ADC_CFG1_DEC_DIV != 0)
1101:.\Generated_Source\PSoC5/BPM_ADC.c ****             adcCounts /= BPM_ADC_CFG1_DEC_DIV;
1102:.\Generated_Source\PSoC5/BPM_ADC.c ****         #endif /* BPM_ADC_CFG1_DEC_DIV */
1103:.\Generated_Source\PSoC5/BPM_ADC.c ****     }
1104:.\Generated_Source\PSoC5/BPM_ADC.c ****     else if (BPM_ADC_Config == BPM_ADC_CFG2)
1105:.\Generated_Source\PSoC5/BPM_ADC.c ****     {
1106:.\Generated_Source\PSoC5/BPM_ADC.c ****         resolution = BPM_ADC_CFG2_RESOLUTION;
1107:.\Generated_Source\PSoC5/BPM_ADC.c ****         #if(BPM_ADC_CFG2_DEC_DIV != 0)
1108:.\Generated_Source\PSoC5/BPM_ADC.c ****             adcCounts /= BPM_ADC_CFG2_DEC_DIV;
1109:.\Generated_Source\PSoC5/BPM_ADC.c ****         #endif /* BPM_ADC_CFG2_DEC_DIV */
1110:.\Generated_Source\PSoC5/BPM_ADC.c ****     }
1111:.\Generated_Source\PSoC5/BPM_ADC.c ****     else if (BPM_ADC_Config == BPM_ADC_CFG3)
1112:.\Generated_Source\PSoC5/BPM_ADC.c ****     {
1113:.\Generated_Source\PSoC5/BPM_ADC.c ****         resolution = BPM_ADC_CFG3_RESOLUTION;
1114:.\Generated_Source\PSoC5/BPM_ADC.c ****         #if(BPM_ADC_CFG3_DEC_DIV != 0)
1115:.\Generated_Source\PSoC5/BPM_ADC.c ****             adcCounts /= BPM_ADC_CFG3_DEC_DIV;
ARM GAS  C:\Users\student\AppData\Local\Temp\ccHj2j2l.s 			page 21


1116:.\Generated_Source\PSoC5/BPM_ADC.c ****         #endif /* BPM_ADC_CFG3_DEC_DIV */
1117:.\Generated_Source\PSoC5/BPM_ADC.c ****     }
1118:.\Generated_Source\PSoC5/BPM_ADC.c ****     else
1119:.\Generated_Source\PSoC5/BPM_ADC.c ****     {
1120:.\Generated_Source\PSoC5/BPM_ADC.c ****         resolution = BPM_ADC_CFG4_RESOLUTION;
1121:.\Generated_Source\PSoC5/BPM_ADC.c ****         #if(BPM_ADC_CFG4_DEC_DIV != 0)
1122:.\Generated_Source\PSoC5/BPM_ADC.c ****             adcCounts /= BPM_ADC_CFG4_DEC_DIV;
1123:.\Generated_Source\PSoC5/BPM_ADC.c ****         #endif /* BPM_ADC_CFG4_DEC_DIV */
1124:.\Generated_Source\PSoC5/BPM_ADC.c ****     }
1125:.\Generated_Source\PSoC5/BPM_ADC.c **** 
1126:.\Generated_Source\PSoC5/BPM_ADC.c ****     switch (resolution)
1127:.\Generated_Source\PSoC5/BPM_ADC.c ****     {
1128:.\Generated_Source\PSoC5/BPM_ADC.c ****         #if( (BPM_ADC_CFG1_RESOLUTION == BPM_ADC__BITS_12) || \
1129:.\Generated_Source\PSoC5/BPM_ADC.c ****              (BPM_ADC_CFG2_RESOLUTION == BPM_ADC__BITS_12) || \
1130:.\Generated_Source\PSoC5/BPM_ADC.c ****              (BPM_ADC_CFG3_RESOLUTION == BPM_ADC__BITS_12) || \
1131:.\Generated_Source\PSoC5/BPM_ADC.c ****              (BPM_ADC_CFG4_RESOLUTION == BPM_ADC__BITS_12) )
1132:.\Generated_Source\PSoC5/BPM_ADC.c ****             case (uint8)BPM_ADC__BITS_12:
1133:.\Generated_Source\PSoC5/BPM_ADC.c ****                 coefA = BPM_ADC_1UV_COUNTS / BPM_ADC_DIVISOR_2;
1134:.\Generated_Source\PSoC5/BPM_ADC.c ****                 coefB = BPM_ADC_DIVISOR_2;
1135:.\Generated_Source\PSoC5/BPM_ADC.c ****                 break;
1136:.\Generated_Source\PSoC5/BPM_ADC.c ****         #endif /* BPM_ADC__BITS_12 */    
1137:.\Generated_Source\PSoC5/BPM_ADC.c ****         #if( (BPM_ADC_CFG1_RESOLUTION == BPM_ADC__BITS_13) || \
1138:.\Generated_Source\PSoC5/BPM_ADC.c ****              (BPM_ADC_CFG2_RESOLUTION == BPM_ADC__BITS_13) || \
1139:.\Generated_Source\PSoC5/BPM_ADC.c ****              (BPM_ADC_CFG3_RESOLUTION == BPM_ADC__BITS_13) || \
1140:.\Generated_Source\PSoC5/BPM_ADC.c ****              (BPM_ADC_CFG4_RESOLUTION == BPM_ADC__BITS_13) )
1141:.\Generated_Source\PSoC5/BPM_ADC.c ****             case (uint8)BPM_ADC__BITS_13:
1142:.\Generated_Source\PSoC5/BPM_ADC.c ****                 coefA = BPM_ADC_1UV_COUNTS / BPM_ADC_DIVISOR_4;
1143:.\Generated_Source\PSoC5/BPM_ADC.c ****                 coefB = BPM_ADC_DIVISOR_4;
1144:.\Generated_Source\PSoC5/BPM_ADC.c ****                 break;
1145:.\Generated_Source\PSoC5/BPM_ADC.c ****         #endif /* BPM_ADC__BITS_13 */    
1146:.\Generated_Source\PSoC5/BPM_ADC.c ****         #if( (BPM_ADC_CFG1_RESOLUTION == BPM_ADC__BITS_14) || \
1147:.\Generated_Source\PSoC5/BPM_ADC.c ****              (BPM_ADC_CFG2_RESOLUTION == BPM_ADC__BITS_14) || \
1148:.\Generated_Source\PSoC5/BPM_ADC.c ****              (BPM_ADC_CFG3_RESOLUTION == BPM_ADC__BITS_14) || \
1149:.\Generated_Source\PSoC5/BPM_ADC.c ****              (BPM_ADC_CFG4_RESOLUTION == BPM_ADC__BITS_14) )
1150:.\Generated_Source\PSoC5/BPM_ADC.c ****             case (uint8)BPM_ADC__BITS_14:
1151:.\Generated_Source\PSoC5/BPM_ADC.c ****                 coefA = BPM_ADC_1UV_COUNTS / BPM_ADC_DIVISOR_8;
1152:.\Generated_Source\PSoC5/BPM_ADC.c ****                 coefB = BPM_ADC_DIVISOR_8;
1153:.\Generated_Source\PSoC5/BPM_ADC.c ****                 break;
1154:.\Generated_Source\PSoC5/BPM_ADC.c ****         #endif /* BPM_ADC__BITS_14 */    
1155:.\Generated_Source\PSoC5/BPM_ADC.c ****         #if( (BPM_ADC_CFG1_RESOLUTION == BPM_ADC__BITS_15) || \
1156:.\Generated_Source\PSoC5/BPM_ADC.c ****              (BPM_ADC_CFG2_RESOLUTION == BPM_ADC__BITS_15) || \
1157:.\Generated_Source\PSoC5/BPM_ADC.c ****              (BPM_ADC_CFG3_RESOLUTION == BPM_ADC__BITS_15) || \
1158:.\Generated_Source\PSoC5/BPM_ADC.c ****              (BPM_ADC_CFG4_RESOLUTION == BPM_ADC__BITS_15) )
1159:.\Generated_Source\PSoC5/BPM_ADC.c ****             case (uint8)BPM_ADC__BITS_15:
1160:.\Generated_Source\PSoC5/BPM_ADC.c ****                 coefA = BPM_ADC_1UV_COUNTS / BPM_ADC_DIVISOR_16;
1161:.\Generated_Source\PSoC5/BPM_ADC.c ****                 coefB = BPM_ADC_DIVISOR_16;
1162:.\Generated_Source\PSoC5/BPM_ADC.c ****                 break;
1163:.\Generated_Source\PSoC5/BPM_ADC.c ****         #endif /* BPM_ADC__BITS_15 */    
1164:.\Generated_Source\PSoC5/BPM_ADC.c ****         #if( (BPM_ADC_CFG1_RESOLUTION == BPM_ADC__BITS_16) || \
1165:.\Generated_Source\PSoC5/BPM_ADC.c ****              (BPM_ADC_CFG2_RESOLUTION == BPM_ADC__BITS_16) || \
1166:.\Generated_Source\PSoC5/BPM_ADC.c ****              (BPM_ADC_CFG3_RESOLUTION == BPM_ADC__BITS_16) || \
1167:.\Generated_Source\PSoC5/BPM_ADC.c ****              (BPM_ADC_CFG4_RESOLUTION == BPM_ADC__BITS_16) )
1168:.\Generated_Source\PSoC5/BPM_ADC.c ****             case (uint8)BPM_ADC__BITS_16:
1169:.\Generated_Source\PSoC5/BPM_ADC.c ****                 coefA = BPM_ADC_1UV_COUNTS / BPM_ADC_DIVISOR_32;
1170:.\Generated_Source\PSoC5/BPM_ADC.c ****                 coefB = BPM_ADC_DIVISOR_32;
1171:.\Generated_Source\PSoC5/BPM_ADC.c ****                 break;
1172:.\Generated_Source\PSoC5/BPM_ADC.c ****         #endif /* BPM_ADC__BITS_16 */    
ARM GAS  C:\Users\student\AppData\Local\Temp\ccHj2j2l.s 			page 22


1173:.\Generated_Source\PSoC5/BPM_ADC.c ****         #if( (BPM_ADC_CFG1_RESOLUTION == BPM_ADC__BITS_17) || \
1174:.\Generated_Source\PSoC5/BPM_ADC.c ****              (BPM_ADC_CFG2_RESOLUTION == BPM_ADC__BITS_17) || \
1175:.\Generated_Source\PSoC5/BPM_ADC.c ****              (BPM_ADC_CFG3_RESOLUTION == BPM_ADC__BITS_17) || \
1176:.\Generated_Source\PSoC5/BPM_ADC.c ****              (BPM_ADC_CFG4_RESOLUTION == BPM_ADC__BITS_17) )
1177:.\Generated_Source\PSoC5/BPM_ADC.c ****             case (uint8)BPM_ADC__BITS_17:
1178:.\Generated_Source\PSoC5/BPM_ADC.c ****                 coefA = BPM_ADC_1UV_COUNTS / BPM_ADC_DIVISOR_64;
1179:.\Generated_Source\PSoC5/BPM_ADC.c ****                 coefB = BPM_ADC_DIVISOR_64;
1180:.\Generated_Source\PSoC5/BPM_ADC.c ****                 break;
1181:.\Generated_Source\PSoC5/BPM_ADC.c ****         #endif /* BPM_ADC__BITS_17 */    
1182:.\Generated_Source\PSoC5/BPM_ADC.c ****         #if( (BPM_ADC_CFG1_RESOLUTION == BPM_ADC__BITS_18) || \
1183:.\Generated_Source\PSoC5/BPM_ADC.c ****              (BPM_ADC_CFG2_RESOLUTION == BPM_ADC__BITS_18) || \
1184:.\Generated_Source\PSoC5/BPM_ADC.c ****              (BPM_ADC_CFG3_RESOLUTION == BPM_ADC__BITS_18) || \
1185:.\Generated_Source\PSoC5/BPM_ADC.c ****              (BPM_ADC_CFG4_RESOLUTION == BPM_ADC__BITS_18) )
1186:.\Generated_Source\PSoC5/BPM_ADC.c ****             case (uint8)BPM_ADC__BITS_18:
1187:.\Generated_Source\PSoC5/BPM_ADC.c ****                 coefA = BPM_ADC_1UV_COUNTS / BPM_ADC_DIVISOR_125;
1188:.\Generated_Source\PSoC5/BPM_ADC.c ****                 coefB = BPM_ADC_DIVISOR_125;
1189:.\Generated_Source\PSoC5/BPM_ADC.c ****                 break;
1190:.\Generated_Source\PSoC5/BPM_ADC.c ****         #endif /* BPM_ADC__BITS_18 */    
1191:.\Generated_Source\PSoC5/BPM_ADC.c ****         #if( (BPM_ADC_CFG1_RESOLUTION == BPM_ADC__BITS_19) || \
1192:.\Generated_Source\PSoC5/BPM_ADC.c ****              (BPM_ADC_CFG2_RESOLUTION == BPM_ADC__BITS_19) || \
1193:.\Generated_Source\PSoC5/BPM_ADC.c ****              (BPM_ADC_CFG3_RESOLUTION == BPM_ADC__BITS_19) || \
1194:.\Generated_Source\PSoC5/BPM_ADC.c ****              (BPM_ADC_CFG4_RESOLUTION == BPM_ADC__BITS_19) )
1195:.\Generated_Source\PSoC5/BPM_ADC.c ****             case (uint8)BPM_ADC__BITS_19:
1196:.\Generated_Source\PSoC5/BPM_ADC.c ****                 coefA = BPM_ADC_1UV_COUNTS / BPM_ADC_DIVISOR_250;
1197:.\Generated_Source\PSoC5/BPM_ADC.c ****                 coefB = BPM_ADC_DIVISOR_250;
1198:.\Generated_Source\PSoC5/BPM_ADC.c ****                 break;
1199:.\Generated_Source\PSoC5/BPM_ADC.c ****         #endif /* BPM_ADC__BITS_19 */    
1200:.\Generated_Source\PSoC5/BPM_ADC.c ****         #if( (BPM_ADC_CFG1_RESOLUTION == BPM_ADC__BITS_20) || \
1201:.\Generated_Source\PSoC5/BPM_ADC.c ****              (BPM_ADC_CFG2_RESOLUTION == BPM_ADC__BITS_20) || \
1202:.\Generated_Source\PSoC5/BPM_ADC.c ****              (BPM_ADC_CFG3_RESOLUTION == BPM_ADC__BITS_20) || \
1203:.\Generated_Source\PSoC5/BPM_ADC.c ****              (BPM_ADC_CFG4_RESOLUTION == BPM_ADC__BITS_20) )
1204:.\Generated_Source\PSoC5/BPM_ADC.c ****             case (uint8)BPM_ADC__BITS_20:
1205:.\Generated_Source\PSoC5/BPM_ADC.c ****                 coefA = BPM_ADC_1UV_COUNTS / BPM_ADC_DIVISOR_500;
1206:.\Generated_Source\PSoC5/BPM_ADC.c ****                 coefB = BPM_ADC_DIVISOR_500;
1207:.\Generated_Source\PSoC5/BPM_ADC.c ****                 break;
1208:.\Generated_Source\PSoC5/BPM_ADC.c ****         #endif /* BPM_ADC__BITS_20 */    
1209:.\Generated_Source\PSoC5/BPM_ADC.c ****         default:    /* resolution < 12 */
1210:.\Generated_Source\PSoC5/BPM_ADC.c ****             /* 11 bits ADC + 2^20(1048576) = 31 bits */
1211:.\Generated_Source\PSoC5/BPM_ADC.c ****             coefA = BPM_ADC_1UV_COUNTS;
1212:.\Generated_Source\PSoC5/BPM_ADC.c ****             coefB = BPM_ADC_DIVISOR_1;
1213:.\Generated_Source\PSoC5/BPM_ADC.c ****             break;
1214:.\Generated_Source\PSoC5/BPM_ADC.c ****     }
1215:.\Generated_Source\PSoC5/BPM_ADC.c ****     coefB = BPM_ADC_CountsPerVolt / coefB;
1216:.\Generated_Source\PSoC5/BPM_ADC.c ****     uVolts = ((coefA * adcCounts) / coefB) - ((coefA * BPM_ADC_Offset) / coefB);
1217:.\Generated_Source\PSoC5/BPM_ADC.c **** 
1218:.\Generated_Source\PSoC5/BPM_ADC.c ****     return( uVolts );
1219:.\Generated_Source\PSoC5/BPM_ADC.c **** }
1220:.\Generated_Source\PSoC5/BPM_ADC.c **** 
1221:.\Generated_Source\PSoC5/BPM_ADC.c **** 
1222:.\Generated_Source\PSoC5/BPM_ADC.c **** /*******************************************************************************
1223:.\Generated_Source\PSoC5/BPM_ADC.c **** * Function Name: BPM_ADC_InitConfig(uint8 config)
1224:.\Generated_Source\PSoC5/BPM_ADC.c **** ********************************************************************************
1225:.\Generated_Source\PSoC5/BPM_ADC.c **** *
1226:.\Generated_Source\PSoC5/BPM_ADC.c **** * Summary:
1227:.\Generated_Source\PSoC5/BPM_ADC.c **** *  Initializes all registers based on customizer settings
1228:.\Generated_Source\PSoC5/BPM_ADC.c **** *
1229:.\Generated_Source\PSoC5/BPM_ADC.c **** * Parameters:
ARM GAS  C:\Users\student\AppData\Local\Temp\ccHj2j2l.s 			page 23


1230:.\Generated_Source\PSoC5/BPM_ADC.c **** *   void
1231:.\Generated_Source\PSoC5/BPM_ADC.c **** *
1232:.\Generated_Source\PSoC5/BPM_ADC.c **** * Return:
1233:.\Generated_Source\PSoC5/BPM_ADC.c **** *  None
1234:.\Generated_Source\PSoC5/BPM_ADC.c **** *
1235:.\Generated_Source\PSoC5/BPM_ADC.c **** * Global variables:
1236:.\Generated_Source\PSoC5/BPM_ADC.c **** *  BPM_ADC_CountsPerVolt:  Used to set the default counts per volt.
1237:.\Generated_Source\PSoC5/BPM_ADC.c **** *
1238:.\Generated_Source\PSoC5/BPM_ADC.c **** * Side Effects: Rewrites the coherency set by BPM_ADC_SetCoherency()
1239:.\Generated_Source\PSoC5/BPM_ADC.c **** *   API to the default value.
1240:.\Generated_Source\PSoC5/BPM_ADC.c **** *
1241:.\Generated_Source\PSoC5/BPM_ADC.c **** *******************************************************************************/
1242:.\Generated_Source\PSoC5/BPM_ADC.c **** static void BPM_ADC_InitConfig(uint8 config) 
1243:.\Generated_Source\PSoC5/BPM_ADC.c **** {
1244:.\Generated_Source\PSoC5/BPM_ADC.c ****     BPM_ADC_stopConversion = 0u;
1245:.\Generated_Source\PSoC5/BPM_ADC.c **** 
1246:.\Generated_Source\PSoC5/BPM_ADC.c ****     if (config == 1u)
1247:.\Generated_Source\PSoC5/BPM_ADC.c ****     {
1248:.\Generated_Source\PSoC5/BPM_ADC.c ****         /* Default Config */
1249:.\Generated_Source\PSoC5/BPM_ADC.c ****         BPM_ADC_DEC_CR_REG      = BPM_ADC_CFG1_DEC_CR;
1250:.\Generated_Source\PSoC5/BPM_ADC.c ****         BPM_ADC_DEC_SHIFT1_REG  = BPM_ADC_CFG1_DEC_SHIFT1;
1251:.\Generated_Source\PSoC5/BPM_ADC.c ****         BPM_ADC_DEC_SHIFT2_REG  = BPM_ADC_CFG1_DEC_SHIFT2;
1252:.\Generated_Source\PSoC5/BPM_ADC.c ****         BPM_ADC_DEC_DR2_REG     = BPM_ADC_CFG1_DEC_DR2;
1253:.\Generated_Source\PSoC5/BPM_ADC.c ****         BPM_ADC_DEC_DR2H_REG    = BPM_ADC_CFG1_DEC_DR2H;
1254:.\Generated_Source\PSoC5/BPM_ADC.c ****         BPM_ADC_DEC_DR1_REG     = BPM_ADC_CFG1_DEC_DR1;
1255:.\Generated_Source\PSoC5/BPM_ADC.c ****         BPM_ADC_DEC_OCOR_REG    = BPM_ADC_CFG1_DEC_OCOR;
1256:.\Generated_Source\PSoC5/BPM_ADC.c ****         BPM_ADC_DEC_OCORM_REG   = BPM_ADC_CFG1_DEC_OCORM;
1257:.\Generated_Source\PSoC5/BPM_ADC.c ****         BPM_ADC_DEC_OCORH_REG   = BPM_ADC_CFG1_DEC_OCORH;
1258:.\Generated_Source\PSoC5/BPM_ADC.c ****         BPM_ADC_DEC_COHER_REG   = BPM_ADC_CFG1_DEC_COHER;
1259:.\Generated_Source\PSoC5/BPM_ADC.c **** 
1260:.\Generated_Source\PSoC5/BPM_ADC.c ****         BPM_ADC_DSM_CR4_REG     = BPM_ADC_CFG1_DSM_CR4;
1261:.\Generated_Source\PSoC5/BPM_ADC.c ****         BPM_ADC_DSM_CR5_REG     = BPM_ADC_CFG1_DSM_CR5;
1262:.\Generated_Source\PSoC5/BPM_ADC.c ****         BPM_ADC_DSM_CR6_REG     = BPM_ADC_CFG1_DSM_CR6;
1263:.\Generated_Source\PSoC5/BPM_ADC.c ****         BPM_ADC_DSM_CR7_REG     = BPM_ADC_CFG1_DSM_CR7;
1264:.\Generated_Source\PSoC5/BPM_ADC.c ****         BPM_ADC_DSM_CR10_REG    = BPM_ADC_CFG1_DSM_CR10;
1265:.\Generated_Source\PSoC5/BPM_ADC.c ****         BPM_ADC_DSM_CR11_REG    = BPM_ADC_CFG1_DSM_CR11;
1266:.\Generated_Source\PSoC5/BPM_ADC.c ****         BPM_ADC_DSM_CR12_REG    = BPM_ADC_CFG1_DSM_CR12;
1267:.\Generated_Source\PSoC5/BPM_ADC.c ****         BPM_ADC_DSM_CR14_REG    = BPM_ADC_CFG1_DSM_CR14;
1268:.\Generated_Source\PSoC5/BPM_ADC.c ****         BPM_ADC_DSM_CR15_REG    = BPM_ADC_CFG1_DSM_CR15;
1269:.\Generated_Source\PSoC5/BPM_ADC.c ****         BPM_ADC_DSM_CR16_REG    = BPM_ADC_CFG1_DSM_CR16;
1270:.\Generated_Source\PSoC5/BPM_ADC.c ****         BPM_ADC_DSM_CR17_REG    = BPM_ADC_CFG1_DSM_CR17;
1271:.\Generated_Source\PSoC5/BPM_ADC.c ****         /* Set DSM_REF0_REG by disabling and enabling the PRESS circuit */
1272:.\Generated_Source\PSoC5/BPM_ADC.c ****         BPM_ADC_SetDSMRef0Reg(BPM_ADC_CFG1_DSM_REF0);
1273:.\Generated_Source\PSoC5/BPM_ADC.c ****         BPM_ADC_DSM_REF2_REG    = BPM_ADC_CFG1_DSM_REF2;
1274:.\Generated_Source\PSoC5/BPM_ADC.c ****         BPM_ADC_DSM_REF3_REG    = BPM_ADC_CFG1_DSM_REF3;
1275:.\Generated_Source\PSoC5/BPM_ADC.c **** 
1276:.\Generated_Source\PSoC5/BPM_ADC.c ****         BPM_ADC_DSM_BUF0_REG    = BPM_ADC_CFG1_DSM_BUF0;
1277:.\Generated_Source\PSoC5/BPM_ADC.c ****         BPM_ADC_DSM_BUF1_REG    = BPM_ADC_CFG1_DSM_BUF1;
1278:.\Generated_Source\PSoC5/BPM_ADC.c ****         BPM_ADC_DSM_BUF2_REG    = BPM_ADC_CFG1_DSM_BUF2;
1279:.\Generated_Source\PSoC5/BPM_ADC.c ****         BPM_ADC_DSM_BUF3_REG    = BPM_ADC_CFG1_DSM_BUF3;
1280:.\Generated_Source\PSoC5/BPM_ADC.c **** 
1281:.\Generated_Source\PSoC5/BPM_ADC.c ****         /* To select either Vssa or Vref to -ve input of DSM depending on
1282:.\Generated_Source\PSoC5/BPM_ADC.c ****         *  the input  range selected.
1283:.\Generated_Source\PSoC5/BPM_ADC.c ****         */
1284:.\Generated_Source\PSoC5/BPM_ADC.c ****         #if(BPM_ADC_DEFAULT_INPUT_MODE)
1285:.\Generated_Source\PSoC5/BPM_ADC.c ****             #if (BPM_ADC_CFG1_INPUT_RANGE == BPM_ADC_IR_VSSA_TO_2VREF)
1286:.\Generated_Source\PSoC5/BPM_ADC.c ****                 BPM_ADC_AMux_Select(1u);
ARM GAS  C:\Users\student\AppData\Local\Temp\ccHj2j2l.s 			page 24


1287:.\Generated_Source\PSoC5/BPM_ADC.c ****             #else
1288:.\Generated_Source\PSoC5/BPM_ADC.c ****                 BPM_ADC_AMux_Select(0u);
1289:.\Generated_Source\PSoC5/BPM_ADC.c ****             #endif /* BPM_ADC_IR_VSSA_TO_2VREF) */
1290:.\Generated_Source\PSoC5/BPM_ADC.c ****         #endif /* BPM_ADC_DEFAULT_INPUT_MODE */
1291:.\Generated_Source\PSoC5/BPM_ADC.c **** 
1292:.\Generated_Source\PSoC5/BPM_ADC.c ****         /* Set the Conversion stop if resolution is above 16 bit and conversion
1293:.\Generated_Source\PSoC5/BPM_ADC.c ****         *   mode is Single sample
1294:.\Generated_Source\PSoC5/BPM_ADC.c ****         */
1295:.\Generated_Source\PSoC5/BPM_ADC.c ****         #if(BPM_ADC_CFG1_RESOLUTION > 16 && \
1296:.\Generated_Source\PSoC5/BPM_ADC.c ****             BPM_ADC_CFG1_CONV_MODE == BPM_ADC_MODE_SINGLE_SAMPLE)
1297:.\Generated_Source\PSoC5/BPM_ADC.c ****             BPM_ADC_stopConversion = 1u;
1298:.\Generated_Source\PSoC5/BPM_ADC.c ****         #endif /* Single sample with resolution above 16 bits. */
1299:.\Generated_Source\PSoC5/BPM_ADC.c **** 
1300:.\Generated_Source\PSoC5/BPM_ADC.c ****         BPM_ADC_CountsPerVolt = (int32)BPM_ADC_CFG1_COUNTS_PER_VOLT;
1301:.\Generated_Source\PSoC5/BPM_ADC.c **** 
1302:.\Generated_Source\PSoC5/BPM_ADC.c ****         BPM_ADC_Ext_CP_Clk_SetDividerRegister(BPM_ADC_CFG1_CP_CLK_DIVIDER, 1u);
1303:.\Generated_Source\PSoC5/BPM_ADC.c **** 
1304:.\Generated_Source\PSoC5/BPM_ADC.c ****         /* This is only valid if there is an internal clock */
1305:.\Generated_Source\PSoC5/BPM_ADC.c ****         #if(BPM_ADC_DEFAULT_INTERNAL_CLK)
1306:.\Generated_Source\PSoC5/BPM_ADC.c ****             BPM_ADC_theACLK_SetDividerRegister(BPM_ADC_CFG1_ADC_CLK_DIVIDER, 1u);
1307:.\Generated_Source\PSoC5/BPM_ADC.c ****         #endif /* BPM_ADC_DEFAULT_INTERNAL_CLK */
1308:.\Generated_Source\PSoC5/BPM_ADC.c **** 
1309:.\Generated_Source\PSoC5/BPM_ADC.c ****         #if(BPM_ADC_IRQ_REMOVE == 0u)
1310:.\Generated_Source\PSoC5/BPM_ADC.c ****             /* Set interrupt vector */
1311:.\Generated_Source\PSoC5/BPM_ADC.c ****             (void)CyIntSetVector(BPM_ADC_INTC_NUMBER, &BPM_ADC_ISR1);
1312:.\Generated_Source\PSoC5/BPM_ADC.c ****         #endif   /* End BPM_ADC_IRQ_REMOVE */
1313:.\Generated_Source\PSoC5/BPM_ADC.c ****     }
1314:.\Generated_Source\PSoC5/BPM_ADC.c **** 
1315:.\Generated_Source\PSoC5/BPM_ADC.c ****     #if(BPM_ADC_DEFAULT_NUM_CONFIGS > 1)
1316:.\Generated_Source\PSoC5/BPM_ADC.c ****         if(config == 2u)
1317:.\Generated_Source\PSoC5/BPM_ADC.c ****         {
1318:.\Generated_Source\PSoC5/BPM_ADC.c ****             /* Second Config */
1319:.\Generated_Source\PSoC5/BPM_ADC.c ****             BPM_ADC_DEC_CR_REG      = BPM_ADC_CFG2_DEC_CR;
1320:.\Generated_Source\PSoC5/BPM_ADC.c ****             BPM_ADC_DEC_SHIFT1_REG  = BPM_ADC_CFG2_DEC_SHIFT1;
1321:.\Generated_Source\PSoC5/BPM_ADC.c ****             BPM_ADC_DEC_SHIFT2_REG  = BPM_ADC_CFG2_DEC_SHIFT2;
1322:.\Generated_Source\PSoC5/BPM_ADC.c ****             BPM_ADC_DEC_DR2_REG     = BPM_ADC_CFG2_DEC_DR2;
1323:.\Generated_Source\PSoC5/BPM_ADC.c ****             BPM_ADC_DEC_DR2H_REG    = BPM_ADC_CFG2_DEC_DR2H;
1324:.\Generated_Source\PSoC5/BPM_ADC.c ****             BPM_ADC_DEC_DR1_REG     = BPM_ADC_CFG2_DEC_DR1;
1325:.\Generated_Source\PSoC5/BPM_ADC.c ****             BPM_ADC_DEC_OCOR_REG    = BPM_ADC_CFG2_DEC_OCOR;
1326:.\Generated_Source\PSoC5/BPM_ADC.c ****             BPM_ADC_DEC_OCORM_REG   = BPM_ADC_CFG2_DEC_OCORM;
1327:.\Generated_Source\PSoC5/BPM_ADC.c ****             BPM_ADC_DEC_OCORH_REG   = BPM_ADC_CFG2_DEC_OCORH;
1328:.\Generated_Source\PSoC5/BPM_ADC.c ****             BPM_ADC_DEC_COHER_REG   = BPM_ADC_CFG2_DEC_COHER;
1329:.\Generated_Source\PSoC5/BPM_ADC.c **** 
1330:.\Generated_Source\PSoC5/BPM_ADC.c ****             BPM_ADC_DSM_CR4_REG     = BPM_ADC_CFG2_DSM_CR4;
1331:.\Generated_Source\PSoC5/BPM_ADC.c ****             BPM_ADC_DSM_CR5_REG     = BPM_ADC_CFG2_DSM_CR5;
1332:.\Generated_Source\PSoC5/BPM_ADC.c ****             BPM_ADC_DSM_CR6_REG     = BPM_ADC_CFG2_DSM_CR6;
1333:.\Generated_Source\PSoC5/BPM_ADC.c ****             BPM_ADC_DSM_CR7_REG     = BPM_ADC_CFG2_DSM_CR7;
1334:.\Generated_Source\PSoC5/BPM_ADC.c ****             BPM_ADC_DSM_CR10_REG    = BPM_ADC_CFG2_DSM_CR10;
1335:.\Generated_Source\PSoC5/BPM_ADC.c ****             BPM_ADC_DSM_CR11_REG    = BPM_ADC_CFG2_DSM_CR11;
1336:.\Generated_Source\PSoC5/BPM_ADC.c ****             BPM_ADC_DSM_CR12_REG    = BPM_ADC_CFG2_DSM_CR12;
1337:.\Generated_Source\PSoC5/BPM_ADC.c ****             BPM_ADC_DSM_CR14_REG    = BPM_ADC_CFG2_DSM_CR14;
1338:.\Generated_Source\PSoC5/BPM_ADC.c ****             BPM_ADC_DSM_CR15_REG    = BPM_ADC_CFG2_DSM_CR15;
1339:.\Generated_Source\PSoC5/BPM_ADC.c ****             BPM_ADC_DSM_CR16_REG    = BPM_ADC_CFG2_DSM_CR16;
1340:.\Generated_Source\PSoC5/BPM_ADC.c ****             BPM_ADC_DSM_CR17_REG    = BPM_ADC_CFG2_DSM_CR17;
1341:.\Generated_Source\PSoC5/BPM_ADC.c ****             /* Set DSM_REF0_REG by disabling and enabling the PRESS cirucit */
1342:.\Generated_Source\PSoC5/BPM_ADC.c ****             BPM_ADC_SetDSMRef0Reg(BPM_ADC_CFG2_DSM_REF0);
1343:.\Generated_Source\PSoC5/BPM_ADC.c ****             BPM_ADC_DSM_REF2_REG    = BPM_ADC_CFG2_DSM_REF2;
ARM GAS  C:\Users\student\AppData\Local\Temp\ccHj2j2l.s 			page 25


1344:.\Generated_Source\PSoC5/BPM_ADC.c ****             BPM_ADC_DSM_REF3_REG    = BPM_ADC_CFG2_DSM_REF3;
1345:.\Generated_Source\PSoC5/BPM_ADC.c **** 
1346:.\Generated_Source\PSoC5/BPM_ADC.c ****             BPM_ADC_DSM_BUF0_REG    = BPM_ADC_CFG2_DSM_BUF0;
1347:.\Generated_Source\PSoC5/BPM_ADC.c ****             BPM_ADC_DSM_BUF1_REG    = BPM_ADC_CFG2_DSM_BUF1;
1348:.\Generated_Source\PSoC5/BPM_ADC.c ****             BPM_ADC_DSM_BUF2_REG    = BPM_ADC_CFG2_DSM_BUF2;
1349:.\Generated_Source\PSoC5/BPM_ADC.c ****             BPM_ADC_DSM_BUF3_REG    = BPM_ADC_CFG2_DSM_BUF3;
1350:.\Generated_Source\PSoC5/BPM_ADC.c **** 
1351:.\Generated_Source\PSoC5/BPM_ADC.c ****             /* To select either Vssa or Vref to -ve input of DSM depending on
1352:.\Generated_Source\PSoC5/BPM_ADC.c ****             *  the input range selected.
1353:.\Generated_Source\PSoC5/BPM_ADC.c ****             */
1354:.\Generated_Source\PSoC5/BPM_ADC.c **** 
1355:.\Generated_Source\PSoC5/BPM_ADC.c ****             #if(BPM_ADC_DEFAULT_INPUT_MODE)
1356:.\Generated_Source\PSoC5/BPM_ADC.c ****                 #if (BPM_ADC_CFG2_INPUT_RANGE == BPM_ADC_IR_VSSA_TO_2VREF)
1357:.\Generated_Source\PSoC5/BPM_ADC.c ****                     BPM_ADC_AMux_Select(1u);
1358:.\Generated_Source\PSoC5/BPM_ADC.c ****                 #else
1359:.\Generated_Source\PSoC5/BPM_ADC.c ****                     BPM_ADC_AMux_Select(0u);
1360:.\Generated_Source\PSoC5/BPM_ADC.c ****                 #endif /* BPM_ADC_IR_VSSA_TO_2VREF) */
1361:.\Generated_Source\PSoC5/BPM_ADC.c ****             #endif /* BPM_ADC_DEFAULT_INPUT_MODE */
1362:.\Generated_Source\PSoC5/BPM_ADC.c **** 
1363:.\Generated_Source\PSoC5/BPM_ADC.c ****             /* Set the Conversion stop if resolution is above 16 bit and
1364:.\Generated_Source\PSoC5/BPM_ADC.c ****             *   conversion mode is Single sample
1365:.\Generated_Source\PSoC5/BPM_ADC.c ****             */
1366:.\Generated_Source\PSoC5/BPM_ADC.c ****             #if(BPM_ADC_CFG2_RESOLUTION > 16 && \
1367:.\Generated_Source\PSoC5/BPM_ADC.c ****                 BPM_ADC_CFG2_CONV_MODE == BPM_ADC_MODE_SINGLE_SAMPLE)
1368:.\Generated_Source\PSoC5/BPM_ADC.c ****                 BPM_ADC_stopConversion = 1u;
1369:.\Generated_Source\PSoC5/BPM_ADC.c ****             #endif /* Single sample with resolution above 16 bits. */
1370:.\Generated_Source\PSoC5/BPM_ADC.c **** 
1371:.\Generated_Source\PSoC5/BPM_ADC.c ****             BPM_ADC_CountsPerVolt = (int32)BPM_ADC_CFG2_COUNTS_PER_VOLT;
1372:.\Generated_Source\PSoC5/BPM_ADC.c **** 
1373:.\Generated_Source\PSoC5/BPM_ADC.c ****             BPM_ADC_Ext_CP_Clk_SetDividerRegister(BPM_ADC_CFG2_CP_CLK_DIVIDER, 1u);
1374:.\Generated_Source\PSoC5/BPM_ADC.c **** 
1375:.\Generated_Source\PSoC5/BPM_ADC.c ****             /* This is only valid if there is an internal clock */
1376:.\Generated_Source\PSoC5/BPM_ADC.c ****             #if(BPM_ADC_DEFAULT_INTERNAL_CLK)
1377:.\Generated_Source\PSoC5/BPM_ADC.c ****                 BPM_ADC_theACLK_SetDividerRegister(BPM_ADC_CFG2_ADC_CLK_DIVIDER, 1u);
1378:.\Generated_Source\PSoC5/BPM_ADC.c ****             #endif /* BPM_ADC_DEFAULT_INTERNAL_CLK */
1379:.\Generated_Source\PSoC5/BPM_ADC.c **** 
1380:.\Generated_Source\PSoC5/BPM_ADC.c ****             #if(BPM_ADC_IRQ_REMOVE == 0u)
1381:.\Generated_Source\PSoC5/BPM_ADC.c ****                 /* Set interrupt vector */
1382:.\Generated_Source\PSoC5/BPM_ADC.c ****                 (void)CyIntSetVector(BPM_ADC_INTC_NUMBER, &BPM_ADC_ISR2);
1383:.\Generated_Source\PSoC5/BPM_ADC.c ****             #endif   /* End BPM_ADC_IRQ_REMOVE */
1384:.\Generated_Source\PSoC5/BPM_ADC.c ****         }
1385:.\Generated_Source\PSoC5/BPM_ADC.c ****     #endif /* BPM_ADC_DEFAULT_NUM_CONFIGS > 1 */
1386:.\Generated_Source\PSoC5/BPM_ADC.c **** 
1387:.\Generated_Source\PSoC5/BPM_ADC.c ****     #if(BPM_ADC_DEFAULT_NUM_CONFIGS > 2)
1388:.\Generated_Source\PSoC5/BPM_ADC.c ****         if(config == 3u)
1389:.\Generated_Source\PSoC5/BPM_ADC.c ****         {
1390:.\Generated_Source\PSoC5/BPM_ADC.c ****             /* Third Config */
1391:.\Generated_Source\PSoC5/BPM_ADC.c ****             BPM_ADC_DEC_CR_REG      = BPM_ADC_CFG3_DEC_CR;
1392:.\Generated_Source\PSoC5/BPM_ADC.c ****             BPM_ADC_DEC_SHIFT1_REG  = BPM_ADC_CFG3_DEC_SHIFT1;
1393:.\Generated_Source\PSoC5/BPM_ADC.c ****             BPM_ADC_DEC_SHIFT2_REG  = BPM_ADC_CFG3_DEC_SHIFT2;
1394:.\Generated_Source\PSoC5/BPM_ADC.c ****             BPM_ADC_DEC_DR2_REG     = BPM_ADC_CFG3_DEC_DR2;
1395:.\Generated_Source\PSoC5/BPM_ADC.c ****             BPM_ADC_DEC_DR2H_REG    = BPM_ADC_CFG3_DEC_DR2H;
1396:.\Generated_Source\PSoC5/BPM_ADC.c ****             BPM_ADC_DEC_DR1_REG     = BPM_ADC_CFG3_DEC_DR1;
1397:.\Generated_Source\PSoC5/BPM_ADC.c ****             BPM_ADC_DEC_OCOR_REG    = BPM_ADC_CFG3_DEC_OCOR;
1398:.\Generated_Source\PSoC5/BPM_ADC.c ****             BPM_ADC_DEC_OCORM_REG   = BPM_ADC_CFG3_DEC_OCORM;
1399:.\Generated_Source\PSoC5/BPM_ADC.c ****             BPM_ADC_DEC_OCORH_REG   = BPM_ADC_CFG3_DEC_OCORH;
1400:.\Generated_Source\PSoC5/BPM_ADC.c ****             BPM_ADC_DEC_COHER_REG   = BPM_ADC_CFG3_DEC_COHER;
ARM GAS  C:\Users\student\AppData\Local\Temp\ccHj2j2l.s 			page 26


1401:.\Generated_Source\PSoC5/BPM_ADC.c **** 
1402:.\Generated_Source\PSoC5/BPM_ADC.c ****             BPM_ADC_DSM_CR4_REG     = BPM_ADC_CFG3_DSM_CR4;
1403:.\Generated_Source\PSoC5/BPM_ADC.c ****             BPM_ADC_DSM_CR5_REG     = BPM_ADC_CFG3_DSM_CR5;
1404:.\Generated_Source\PSoC5/BPM_ADC.c ****             BPM_ADC_DSM_CR6_REG     = BPM_ADC_CFG3_DSM_CR6;
1405:.\Generated_Source\PSoC5/BPM_ADC.c ****             BPM_ADC_DSM_CR7_REG     = BPM_ADC_CFG3_DSM_CR7;
1406:.\Generated_Source\PSoC5/BPM_ADC.c ****             BPM_ADC_DSM_CR10_REG    = BPM_ADC_CFG3_DSM_CR10;
1407:.\Generated_Source\PSoC5/BPM_ADC.c ****             BPM_ADC_DSM_CR11_REG    = BPM_ADC_CFG3_DSM_CR11;
1408:.\Generated_Source\PSoC5/BPM_ADC.c ****             BPM_ADC_DSM_CR12_REG    = BPM_ADC_CFG3_DSM_CR12;
1409:.\Generated_Source\PSoC5/BPM_ADC.c ****             BPM_ADC_DSM_CR14_REG    = BPM_ADC_CFG3_DSM_CR14;
1410:.\Generated_Source\PSoC5/BPM_ADC.c ****             BPM_ADC_DSM_CR15_REG    = BPM_ADC_CFG3_DSM_CR15;
1411:.\Generated_Source\PSoC5/BPM_ADC.c ****             BPM_ADC_DSM_CR16_REG    = BPM_ADC_CFG3_DSM_CR16;
1412:.\Generated_Source\PSoC5/BPM_ADC.c ****             BPM_ADC_DSM_CR17_REG    = BPM_ADC_CFG3_DSM_CR17;
1413:.\Generated_Source\PSoC5/BPM_ADC.c ****             /* Set DSM_REF0_REG by disabling and enabling the PRESS circuit */
1414:.\Generated_Source\PSoC5/BPM_ADC.c ****             BPM_ADC_SetDSMRef0Reg(BPM_ADC_CFG3_DSM_REF0);
1415:.\Generated_Source\PSoC5/BPM_ADC.c ****             BPM_ADC_DSM_REF2_REG    = BPM_ADC_CFG3_DSM_REF2;
1416:.\Generated_Source\PSoC5/BPM_ADC.c ****             BPM_ADC_DSM_REF3_REG    = BPM_ADC_CFG3_DSM_REF3;
1417:.\Generated_Source\PSoC5/BPM_ADC.c **** 
1418:.\Generated_Source\PSoC5/BPM_ADC.c ****             BPM_ADC_DSM_BUF0_REG    = BPM_ADC_CFG3_DSM_BUF0;
1419:.\Generated_Source\PSoC5/BPM_ADC.c ****             BPM_ADC_DSM_BUF1_REG    = BPM_ADC_CFG3_DSM_BUF1;
1420:.\Generated_Source\PSoC5/BPM_ADC.c ****             BPM_ADC_DSM_BUF2_REG    = BPM_ADC_CFG3_DSM_BUF2;
1421:.\Generated_Source\PSoC5/BPM_ADC.c ****             BPM_ADC_DSM_BUF3_REG    = BPM_ADC_CFG3_DSM_BUF3;
1422:.\Generated_Source\PSoC5/BPM_ADC.c **** 
1423:.\Generated_Source\PSoC5/BPM_ADC.c ****             /* To select either Vssa or Vref to -ve input of DSM depending on
1424:.\Generated_Source\PSoC5/BPM_ADC.c ****             *  the input range selected.
1425:.\Generated_Source\PSoC5/BPM_ADC.c ****             */
1426:.\Generated_Source\PSoC5/BPM_ADC.c ****             #if(BPM_ADC_DEFAULT_INPUT_MODE)
1427:.\Generated_Source\PSoC5/BPM_ADC.c ****                 #if (BPM_ADC_CFG3_INPUT_RANGE == BPM_ADC_IR_VSSA_TO_2VREF)
1428:.\Generated_Source\PSoC5/BPM_ADC.c ****                     BPM_ADC_AMux_Select(1u);
1429:.\Generated_Source\PSoC5/BPM_ADC.c ****                 #else
1430:.\Generated_Source\PSoC5/BPM_ADC.c ****                     BPM_ADC_AMux_Select(0u);
1431:.\Generated_Source\PSoC5/BPM_ADC.c ****                 #endif /* BPM_ADC_IR_VSSA_TO_2VREF) */
1432:.\Generated_Source\PSoC5/BPM_ADC.c ****             #endif /* BPM_ADC_DEFAULT_INPUT_MODE */
1433:.\Generated_Source\PSoC5/BPM_ADC.c **** 
1434:.\Generated_Source\PSoC5/BPM_ADC.c ****             /* Set the Conversion stop if resolution is above 16 bit and
1435:.\Generated_Source\PSoC5/BPM_ADC.c ****                conversion  mode is Single sample */
1436:.\Generated_Source\PSoC5/BPM_ADC.c ****             #if(BPM_ADC_CFG3_RESOLUTION > 16 && \
1437:.\Generated_Source\PSoC5/BPM_ADC.c ****                 BPM_ADC_CFG3_CONV_MODE == BPM_ADC_MODE_SINGLE_SAMPLE)
1438:.\Generated_Source\PSoC5/BPM_ADC.c ****                 BPM_ADC_stopConversion = 1u;
1439:.\Generated_Source\PSoC5/BPM_ADC.c ****             #endif /* Single sample with resolution above 16 bits */
1440:.\Generated_Source\PSoC5/BPM_ADC.c **** 
1441:.\Generated_Source\PSoC5/BPM_ADC.c ****             BPM_ADC_CountsPerVolt = (int32)BPM_ADC_CFG3_COUNTS_PER_VOLT;
1442:.\Generated_Source\PSoC5/BPM_ADC.c **** 
1443:.\Generated_Source\PSoC5/BPM_ADC.c ****             BPM_ADC_Ext_CP_Clk_SetDividerRegister(BPM_ADC_CFG3_CP_CLK_DIVIDER, 1u);
1444:.\Generated_Source\PSoC5/BPM_ADC.c **** 
1445:.\Generated_Source\PSoC5/BPM_ADC.c ****             /* This is only valid if there is an internal clock */
1446:.\Generated_Source\PSoC5/BPM_ADC.c ****             #if(BPM_ADC_DEFAULT_INTERNAL_CLK)
1447:.\Generated_Source\PSoC5/BPM_ADC.c ****                 BPM_ADC_theACLK_SetDividerRegister(BPM_ADC_CFG3_ADC_CLK_DIVIDER, 1u);
1448:.\Generated_Source\PSoC5/BPM_ADC.c ****             #endif /* BPM_ADC_DEFAULT_INTERNAL_CLK */
1449:.\Generated_Source\PSoC5/BPM_ADC.c **** 
1450:.\Generated_Source\PSoC5/BPM_ADC.c ****             #if(BPM_ADC_IRQ_REMOVE == 0u)
1451:.\Generated_Source\PSoC5/BPM_ADC.c ****                 /* Set interrupt vector */
1452:.\Generated_Source\PSoC5/BPM_ADC.c ****                 (void)CyIntSetVector(BPM_ADC_INTC_NUMBER, &BPM_ADC_ISR3);
1453:.\Generated_Source\PSoC5/BPM_ADC.c ****             #endif   /* End BPM_ADC_IRQ_REMOVE */
1454:.\Generated_Source\PSoC5/BPM_ADC.c ****         }
1455:.\Generated_Source\PSoC5/BPM_ADC.c ****     #endif /* BPM_ADC_DEFAULT_NUM_CONFIGS > 2 */
1456:.\Generated_Source\PSoC5/BPM_ADC.c **** 
1457:.\Generated_Source\PSoC5/BPM_ADC.c ****     #if(BPM_ADC_DEFAULT_NUM_CONFIGS > 3)
ARM GAS  C:\Users\student\AppData\Local\Temp\ccHj2j2l.s 			page 27


1458:.\Generated_Source\PSoC5/BPM_ADC.c ****         if (config == 4u)
1459:.\Generated_Source\PSoC5/BPM_ADC.c ****         {
1460:.\Generated_Source\PSoC5/BPM_ADC.c ****             /* Fourth Config */
1461:.\Generated_Source\PSoC5/BPM_ADC.c ****             BPM_ADC_DEC_CR_REG      = BPM_ADC_CFG4_DEC_CR;
1462:.\Generated_Source\PSoC5/BPM_ADC.c ****             BPM_ADC_DEC_SHIFT1_REG  = BPM_ADC_CFG4_DEC_SHIFT1;
1463:.\Generated_Source\PSoC5/BPM_ADC.c ****             BPM_ADC_DEC_SHIFT2_REG  = BPM_ADC_CFG4_DEC_SHIFT2;
1464:.\Generated_Source\PSoC5/BPM_ADC.c ****             BPM_ADC_DEC_DR2_REG     = BPM_ADC_CFG4_DEC_DR2;
1465:.\Generated_Source\PSoC5/BPM_ADC.c ****             BPM_ADC_DEC_DR2H_REG    = BPM_ADC_CFG4_DEC_DR2H;
1466:.\Generated_Source\PSoC5/BPM_ADC.c ****             BPM_ADC_DEC_DR1_REG     = BPM_ADC_CFG4_DEC_DR1;
1467:.\Generated_Source\PSoC5/BPM_ADC.c ****             BPM_ADC_DEC_OCOR_REG    = BPM_ADC_CFG4_DEC_OCOR;
1468:.\Generated_Source\PSoC5/BPM_ADC.c ****             BPM_ADC_DEC_OCORM_REG   = BPM_ADC_CFG4_DEC_OCORM;
1469:.\Generated_Source\PSoC5/BPM_ADC.c ****             BPM_ADC_DEC_OCORH_REG   = BPM_ADC_CFG4_DEC_OCORH;
1470:.\Generated_Source\PSoC5/BPM_ADC.c ****             BPM_ADC_DEC_COHER_REG   = BPM_ADC_CFG4_DEC_COHER;
1471:.\Generated_Source\PSoC5/BPM_ADC.c **** 
1472:.\Generated_Source\PSoC5/BPM_ADC.c ****             BPM_ADC_DSM_CR4_REG     = BPM_ADC_CFG4_DSM_CR4;
1473:.\Generated_Source\PSoC5/BPM_ADC.c ****             BPM_ADC_DSM_CR5_REG     = BPM_ADC_CFG4_DSM_CR5;
1474:.\Generated_Source\PSoC5/BPM_ADC.c ****             BPM_ADC_DSM_CR6_REG     = BPM_ADC_CFG4_DSM_CR6;
1475:.\Generated_Source\PSoC5/BPM_ADC.c ****             BPM_ADC_DSM_CR7_REG     = BPM_ADC_CFG4_DSM_CR7;
1476:.\Generated_Source\PSoC5/BPM_ADC.c ****             BPM_ADC_DSM_CR10_REG    = BPM_ADC_CFG4_DSM_CR10;
1477:.\Generated_Source\PSoC5/BPM_ADC.c ****             BPM_ADC_DSM_CR11_REG    = BPM_ADC_CFG4_DSM_CR11;
1478:.\Generated_Source\PSoC5/BPM_ADC.c ****             BPM_ADC_DSM_CR12_REG    = BPM_ADC_CFG4_DSM_CR12;
1479:.\Generated_Source\PSoC5/BPM_ADC.c ****             BPM_ADC_DSM_CR14_REG    = BPM_ADC_CFG4_DSM_CR14;
1480:.\Generated_Source\PSoC5/BPM_ADC.c ****             BPM_ADC_DSM_CR15_REG    = BPM_ADC_CFG4_DSM_CR15;
1481:.\Generated_Source\PSoC5/BPM_ADC.c ****             BPM_ADC_DSM_CR16_REG    = BPM_ADC_CFG4_DSM_CR16;
1482:.\Generated_Source\PSoC5/BPM_ADC.c ****             BPM_ADC_DSM_CR17_REG    = BPM_ADC_CFG4_DSM_CR17;
1483:.\Generated_Source\PSoC5/BPM_ADC.c ****             /* Set DSM_REF0_REG by disabling and enabling the PRESS circuit */
1484:.\Generated_Source\PSoC5/BPM_ADC.c ****             BPM_ADC_SetDSMRef0Reg(BPM_ADC_CFG4_DSM_REF0);
1485:.\Generated_Source\PSoC5/BPM_ADC.c ****             BPM_ADC_DSM_REF2_REG    = BPM_ADC_CFG4_DSM_REF2;
1486:.\Generated_Source\PSoC5/BPM_ADC.c ****             BPM_ADC_DSM_REF3_REG    = BPM_ADC_CFG4_DSM_REF3;
1487:.\Generated_Source\PSoC5/BPM_ADC.c **** 
1488:.\Generated_Source\PSoC5/BPM_ADC.c ****             BPM_ADC_DSM_BUF0_REG    = BPM_ADC_CFG4_DSM_BUF0;
1489:.\Generated_Source\PSoC5/BPM_ADC.c ****             BPM_ADC_DSM_BUF1_REG    = BPM_ADC_CFG4_DSM_BUF1;
1490:.\Generated_Source\PSoC5/BPM_ADC.c ****             BPM_ADC_DSM_BUF2_REG    = BPM_ADC_CFG4_DSM_BUF2;
1491:.\Generated_Source\PSoC5/BPM_ADC.c ****             BPM_ADC_DSM_BUF3_REG    = BPM_ADC_CFG4_DSM_BUF3;
1492:.\Generated_Source\PSoC5/BPM_ADC.c **** 
1493:.\Generated_Source\PSoC5/BPM_ADC.c ****             /* To select either Vssa or Vref to -ve input of DSM depending on
1494:.\Generated_Source\PSoC5/BPM_ADC.c ****             *  the input range selected.
1495:.\Generated_Source\PSoC5/BPM_ADC.c ****             */
1496:.\Generated_Source\PSoC5/BPM_ADC.c ****             #if(BPM_ADC_DEFAULT_INPUT_MODE)
1497:.\Generated_Source\PSoC5/BPM_ADC.c ****                 #if (BPM_ADC_CFG4_INPUT_RANGE == BPM_ADC_IR_VSSA_TO_2VREF)
1498:.\Generated_Source\PSoC5/BPM_ADC.c ****                     BPM_ADC_AMux_Select(1u);
1499:.\Generated_Source\PSoC5/BPM_ADC.c ****                 #else
1500:.\Generated_Source\PSoC5/BPM_ADC.c ****                     BPM_ADC_AMux_Select(0u);
1501:.\Generated_Source\PSoC5/BPM_ADC.c ****                 #endif /* BPM_ADC_IR_VSSA_TO_2VREF) */
1502:.\Generated_Source\PSoC5/BPM_ADC.c ****             #endif /* BPM_ADC_DEFAULT_INPUT_MODE */
1503:.\Generated_Source\PSoC5/BPM_ADC.c **** 
1504:.\Generated_Source\PSoC5/BPM_ADC.c ****             /* Set the Conversion stop if resolution is above 16 bit and
1505:.\Generated_Source\PSoC5/BPM_ADC.c ****                conversion mode is Single sample */
1506:.\Generated_Source\PSoC5/BPM_ADC.c ****             #if(BPM_ADC_CFG4_RESOLUTION > 16 && \
1507:.\Generated_Source\PSoC5/BPM_ADC.c ****                 BPM_ADC_CFG4_CONV_MODE == BPM_ADC_MODE_SINGLE_SAMPLE)
1508:.\Generated_Source\PSoC5/BPM_ADC.c ****                 BPM_ADC_stopConversion = 1u;
1509:.\Generated_Source\PSoC5/BPM_ADC.c ****             #endif /* Single sample with resolution above 16 bits */
1510:.\Generated_Source\PSoC5/BPM_ADC.c **** 
1511:.\Generated_Source\PSoC5/BPM_ADC.c ****             BPM_ADC_CountsPerVolt = (int32)BPM_ADC_CFG4_COUNTS_PER_VOLT;
1512:.\Generated_Source\PSoC5/BPM_ADC.c **** 
1513:.\Generated_Source\PSoC5/BPM_ADC.c ****             BPM_ADC_Ext_CP_Clk_SetDividerRegister(BPM_ADC_CFG4_CP_CLK_DIVIDER, 1u);
1514:.\Generated_Source\PSoC5/BPM_ADC.c **** 
ARM GAS  C:\Users\student\AppData\Local\Temp\ccHj2j2l.s 			page 28


1515:.\Generated_Source\PSoC5/BPM_ADC.c ****             /* This is only valid if there is an internal clock */
1516:.\Generated_Source\PSoC5/BPM_ADC.c ****             #if(BPM_ADC_DEFAULT_INTERNAL_CLK)
1517:.\Generated_Source\PSoC5/BPM_ADC.c ****                 BPM_ADC_theACLK_SetDividerRegister(BPM_ADC_CFG4_ADC_CLK_DIVIDER, 1u);
1518:.\Generated_Source\PSoC5/BPM_ADC.c ****             #endif /* BPM_ADC_DEFAULT_INTERNAL_CLK */
1519:.\Generated_Source\PSoC5/BPM_ADC.c **** 
1520:.\Generated_Source\PSoC5/BPM_ADC.c ****             #if(BPM_ADC_IRQ_REMOVE == 0u)
1521:.\Generated_Source\PSoC5/BPM_ADC.c ****                 /* Set interrupt vector */
1522:.\Generated_Source\PSoC5/BPM_ADC.c ****                 (void)CyIntSetVector(BPM_ADC_INTC_NUMBER, &BPM_ADC_ISR4);
1523:.\Generated_Source\PSoC5/BPM_ADC.c ****             #endif   /* End BPM_ADC_IRQ_REMOVE */
1524:.\Generated_Source\PSoC5/BPM_ADC.c ****         }
1525:.\Generated_Source\PSoC5/BPM_ADC.c ****     #endif /* BPM_ADC_DEFAULT_NUM_CONFIGS > 3 */
1526:.\Generated_Source\PSoC5/BPM_ADC.c **** }
1527:.\Generated_Source\PSoC5/BPM_ADC.c **** 
1528:.\Generated_Source\PSoC5/BPM_ADC.c **** 
1529:.\Generated_Source\PSoC5/BPM_ADC.c **** /*******************************************************************************
1530:.\Generated_Source\PSoC5/BPM_ADC.c **** * Function Name: BPM_ADC_SelectCofiguration
1531:.\Generated_Source\PSoC5/BPM_ADC.c **** ********************************************************************************
1532:.\Generated_Source\PSoC5/BPM_ADC.c **** *
1533:.\Generated_Source\PSoC5/BPM_ADC.c **** * Summary:
1534:.\Generated_Source\PSoC5/BPM_ADC.c **** *  Sets one of up to four ADC configurations. Before setting the new
1535:.\Generated_Source\PSoC5/BPM_ADC.c **** *  configuration, the ADC is stopped and powered down. After setting
1536:.\Generated_Source\PSoC5/BPM_ADC.c **** *  the new configuration, the ADC can be powered and conversion
1537:.\Generated_Source\PSoC5/BPM_ADC.c **** *  can be restarted depending up on the value of second parameter
1538:.\Generated_Source\PSoC5/BPM_ADC.c **** *  restart. If the value of this parameter is 1, then ADC will be
1539:.\Generated_Source\PSoC5/BPM_ADC.c **** *  restarted. If this value is zero, then user must call BPM_ADC_Start
1540:.\Generated_Source\PSoC5/BPM_ADC.c **** *  and BPM_ADC_StartConvert() to restart the conversion.
1541:.\Generated_Source\PSoC5/BPM_ADC.c **** *
1542:.\Generated_Source\PSoC5/BPM_ADC.c **** * Parameters:
1543:.\Generated_Source\PSoC5/BPM_ADC.c **** *  config:  configuration user wants to select.
1544:.\Generated_Source\PSoC5/BPM_ADC.c **** *           Valid range: 1..4
1545:.\Generated_Source\PSoC5/BPM_ADC.c **** *  restart:  Restart option. 1 means start the ADC and restart the conversion.
1546:.\Generated_Source\PSoC5/BPM_ADC.c **** *                            0 means do not start the ADC and conversion.
1547:.\Generated_Source\PSoC5/BPM_ADC.c **** *
1548:.\Generated_Source\PSoC5/BPM_ADC.c **** * Return:
1549:.\Generated_Source\PSoC5/BPM_ADC.c **** *  None
1550:.\Generated_Source\PSoC5/BPM_ADC.c **** *
1551:.\Generated_Source\PSoC5/BPM_ADC.c **** *******************************************************************************/
1552:.\Generated_Source\PSoC5/BPM_ADC.c **** void BPM_ADC_SelectConfiguration(uint8 config, uint8 restart)
1553:.\Generated_Source\PSoC5/BPM_ADC.c ****                                               
1554:.\Generated_Source\PSoC5/BPM_ADC.c **** {
1555:.\Generated_Source\PSoC5/BPM_ADC.c ****     /* Check whether the configuration number is valid or not */
1556:.\Generated_Source\PSoC5/BPM_ADC.c ****     if((config > 0u) && (config <= BPM_ADC_DEFAULT_NUM_CONFIGS))
1557:.\Generated_Source\PSoC5/BPM_ADC.c ****     {
1558:.\Generated_Source\PSoC5/BPM_ADC.c ****         /* Set the flag to ensure Start() API doesn't override the 
1559:.\Generated_Source\PSoC5/BPM_ADC.c **** 		*  selected configuration
1560:.\Generated_Source\PSoC5/BPM_ADC.c **** 		*/
1561:.\Generated_Source\PSoC5/BPM_ADC.c ****         if(BPM_ADC_initVar == 0u)
1562:.\Generated_Source\PSoC5/BPM_ADC.c ****         {
1563:.\Generated_Source\PSoC5/BPM_ADC.c ****             BPM_ADC_started = 1u;
1564:.\Generated_Source\PSoC5/BPM_ADC.c ****         }
1565:.\Generated_Source\PSoC5/BPM_ADC.c **** 
1566:.\Generated_Source\PSoC5/BPM_ADC.c ****         /* Update the config flag */
1567:.\Generated_Source\PSoC5/BPM_ADC.c ****         BPM_ADC_Config = config;
1568:.\Generated_Source\PSoC5/BPM_ADC.c **** 
1569:.\Generated_Source\PSoC5/BPM_ADC.c ****         /* Stop the ADC  */
1570:.\Generated_Source\PSoC5/BPM_ADC.c ****         BPM_ADC_Stop();
1571:.\Generated_Source\PSoC5/BPM_ADC.c **** 
ARM GAS  C:\Users\student\AppData\Local\Temp\ccHj2j2l.s 			page 29


1572:.\Generated_Source\PSoC5/BPM_ADC.c ****         /* Set the  ADC registers based on the configuration */
1573:.\Generated_Source\PSoC5/BPM_ADC.c ****         BPM_ADC_InitConfig(config);
1574:.\Generated_Source\PSoC5/BPM_ADC.c **** 
1575:.\Generated_Source\PSoC5/BPM_ADC.c ****         /* Compensate the gain */
1576:.\Generated_Source\PSoC5/BPM_ADC.c ****         BPM_ADC_DEC_GVAL_REG = BPM_ADC_gcor[config - 1u].gval;
1577:.\Generated_Source\PSoC5/BPM_ADC.c ****         CY_SET_REG16(BPM_ADC_DEC_GCOR_16B_PTR, BPM_ADC_gcor[config - 1u].gcor);
1578:.\Generated_Source\PSoC5/BPM_ADC.c **** 
1579:.\Generated_Source\PSoC5/BPM_ADC.c ****         if(restart == 1u)
1580:.\Generated_Source\PSoC5/BPM_ADC.c ****         {
1581:.\Generated_Source\PSoC5/BPM_ADC.c ****             /* Restart the ADC */
1582:.\Generated_Source\PSoC5/BPM_ADC.c ****             BPM_ADC_Start();
1583:.\Generated_Source\PSoC5/BPM_ADC.c **** 
1584:.\Generated_Source\PSoC5/BPM_ADC.c ****             /* Restart the ADC conversion */
1585:.\Generated_Source\PSoC5/BPM_ADC.c ****             BPM_ADC_StartConvert();
1586:.\Generated_Source\PSoC5/BPM_ADC.c ****         }
1587:.\Generated_Source\PSoC5/BPM_ADC.c ****     }
1588:.\Generated_Source\PSoC5/BPM_ADC.c ****     else
1589:.\Generated_Source\PSoC5/BPM_ADC.c ****     {
1590:.\Generated_Source\PSoC5/BPM_ADC.c ****         /* Halt CPU in debug mode if config is out of valid range */
1591:.\Generated_Source\PSoC5/BPM_ADC.c ****         CYASSERT(0u != 0u);
1592:.\Generated_Source\PSoC5/BPM_ADC.c ****     }
1593:.\Generated_Source\PSoC5/BPM_ADC.c **** }
1594:.\Generated_Source\PSoC5/BPM_ADC.c **** 
1595:.\Generated_Source\PSoC5/BPM_ADC.c **** 
1596:.\Generated_Source\PSoC5/BPM_ADC.c **** /*******************************************************************************
1597:.\Generated_Source\PSoC5/BPM_ADC.c **** * Function Name: BPM_ADC_GainCompensation
1598:.\Generated_Source\PSoC5/BPM_ADC.c **** ********************************************************************************
1599:.\Generated_Source\PSoC5/BPM_ADC.c **** *
1600:.\Generated_Source\PSoC5/BPM_ADC.c **** * Summary:
1601:.\Generated_Source\PSoC5/BPM_ADC.c **** *  This API calculates the trim value and then store this to gcor structure.
1602:.\Generated_Source\PSoC5/BPM_ADC.c **** *
1603:.\Generated_Source\PSoC5/BPM_ADC.c **** * Parameters:
1604:.\Generated_Source\PSoC5/BPM_ADC.c **** *  inputRange:  input range for which trim value is to be calculated.
1605:.\Generated_Source\PSoC5/BPM_ADC.c **** *  IdealDecGain:  Ideal Decimator gain for the selected resolution and
1606:.\Generated_Source\PSoC5/BPM_ADC.c **** *                 conversion  mode.
1607:.\Generated_Source\PSoC5/BPM_ADC.c **** *  IdealOddDecGain:  Ideal odd decimation gain for the selected resolution and
1608:.\Generated_Source\PSoC5/BPM_ADC.c ****                      conversion mode.
1609:.\Generated_Source\PSoC5/BPM_ADC.c **** *  resolution:  Resolution to select the proper flash location for trim value.
1610:.\Generated_Source\PSoC5/BPM_ADC.c **** *  config:      Specifies the configuration number
1611:.\Generated_Source\PSoC5/BPM_ADC.c **** *               Valid range: 1..4
1612:.\Generated_Source\PSoC5/BPM_ADC.c **** *
1613:.\Generated_Source\PSoC5/BPM_ADC.c **** * Return:
1614:.\Generated_Source\PSoC5/BPM_ADC.c **** *  None
1615:.\Generated_Source\PSoC5/BPM_ADC.c **** *
1616:.\Generated_Source\PSoC5/BPM_ADC.c **** *******************************************************************************/
1617:.\Generated_Source\PSoC5/BPM_ADC.c **** static void BPM_ADC_GainCompensation(uint8 inputRange, uint16 idealDecGain, uint16 idealOddDecGain,
1618:.\Generated_Source\PSoC5/BPM_ADC.c ****                               uint8 resolution, uint8 config) 
1619:.\Generated_Source\PSoC5/BPM_ADC.c **** {
  26              		.loc 1 1619 0
  27              		.cfi_startproc
  28              		@ args = 4, pretend = 0, frame = 0
  29              		@ frame_needed = 0, uses_anonymous_args = 0
  30              	.LVL0:
  31 0000 38B5     		push	{r3, r4, r5, lr}
  32              		.cfi_def_cfa_offset 16
  33              		.cfi_offset 3, -16
  34              		.cfi_offset 4, -12
ARM GAS  C:\Users\student\AppData\Local\Temp\ccHj2j2l.s 			page 30


  35              		.cfi_offset 5, -8
  36              		.cfi_offset 14, -4
  37 0002 9DF81040 		ldrb	r4, [sp, #16]	@ zero_extendqisi2
1620:.\Generated_Source\PSoC5/BPM_ADC.c ****     int8 flash;
1621:.\Generated_Source\PSoC5/BPM_ADC.c **** 	int32 normalised;
1622:.\Generated_Source\PSoC5/BPM_ADC.c **** 	uint16 gcorValue;
1623:.\Generated_Source\PSoC5/BPM_ADC.c ****     uint32 gcorTmp;
1624:.\Generated_Source\PSoC5/BPM_ADC.c **** 
1625:.\Generated_Source\PSoC5/BPM_ADC.c ****     if((config > 0u) && (config <= BPM_ADC_DEFAULT_NUM_CONFIGS))
  38              		.loc 1 1625 0
  39 0006 651E     		subs	r5, r4, #1
  40 0008 EDB2     		uxtb	r5, r5
  41 000a 032D     		cmp	r5, #3
  42 000c 4AD8     		bhi	.L2
1626:.\Generated_Source\PSoC5/BPM_ADC.c ****     {
1627:.\Generated_Source\PSoC5/BPM_ADC.c ****         switch(inputRange)
  43              		.loc 1 1627 0
  44 000e 0138     		subs	r0, r0, #1
  45              	.LVL1:
  46 0010 0928     		cmp	r0, #9
  47 0012 26D8     		bhi	.L16
  48 0014 DFE800F0 		tbb	[pc, r0]
  49              	.L5:
  50 0018 05       		.byte	(.L4-.L5)/2
  51 0019 25       		.byte	(.L16-.L5)/2
  52 001a 25       		.byte	(.L16-.L5)/2
  53 001b 05       		.byte	(.L4-.L5)/2
  54 001c 25       		.byte	(.L16-.L5)/2
  55 001d 25       		.byte	(.L16-.L5)/2
  56 001e 0D       		.byte	(.L6-.L5)/2
  57 001f 15       		.byte	(.L7-.L5)/2
  58 0020 25       		.byte	(.L16-.L5)/2
  59 0021 1D       		.byte	(.L8-.L5)/2
  60              		.p2align 1
  61              	.L4:
1628:.\Generated_Source\PSoC5/BPM_ADC.c ****         {
1629:.\Generated_Source\PSoC5/BPM_ADC.c ****             case BPM_ADC_IR_VNEG_VREF_DIFF:
1630:.\Generated_Source\PSoC5/BPM_ADC.c ****             case BPM_ADC_IR_VSSA_TO_2VREF:
1631:.\Generated_Source\PSoC5/BPM_ADC.c ****                 /* Normalize the flash Value */
1632:.\Generated_Source\PSoC5/BPM_ADC.c ****                 if(resolution > 15u)
  62              		.loc 1 1632 0
  63 0022 0F2B     		cmp	r3, #15
  64 0024 02D9     		bls	.L9
1633:.\Generated_Source\PSoC5/BPM_ADC.c ****                 {
1634:.\Generated_Source\PSoC5/BPM_ADC.c ****                     flash = BPM_ADC_DEC_TRIM_VREF_DIFF_16_20;
  65              		.loc 1 1634 0
  66 0026 2148     		ldr	r0, .L18
  67 0028 0078     		ldrb	r0, [r0]	@ zero_extendqisi2
  68              	.LVL2:
  69 002a 1BE0     		b	.L3
  70              	.LVL3:
  71              	.L9:
1635:.\Generated_Source\PSoC5/BPM_ADC.c ****                 }
1636:.\Generated_Source\PSoC5/BPM_ADC.c ****                 else
1637:.\Generated_Source\PSoC5/BPM_ADC.c ****                 {
1638:.\Generated_Source\PSoC5/BPM_ADC.c ****                     flash = BPM_ADC_DEC_TRIM_VREF_DIFF_8_15;
  72              		.loc 1 1638 0
ARM GAS  C:\Users\student\AppData\Local\Temp\ccHj2j2l.s 			page 31


  73 002c 2048     		ldr	r0, .L18+4
  74 002e 0078     		ldrb	r0, [r0]	@ zero_extendqisi2
  75              	.LVL4:
  76 0030 18E0     		b	.L3
  77              	.LVL5:
  78              	.L6:
1639:.\Generated_Source\PSoC5/BPM_ADC.c ****                 }
1640:.\Generated_Source\PSoC5/BPM_ADC.c ****                 break;
1641:.\Generated_Source\PSoC5/BPM_ADC.c **** 
1642:.\Generated_Source\PSoC5/BPM_ADC.c ****             case BPM_ADC_IR_VNEG_VREF_2_DIFF:
1643:.\Generated_Source\PSoC5/BPM_ADC.c ****                 /* Normalize the flash Value */
1644:.\Generated_Source\PSoC5/BPM_ADC.c ****                 if(resolution > 15u)
  79              		.loc 1 1644 0
  80 0032 0F2B     		cmp	r3, #15
  81 0034 02D9     		bls	.L10
1645:.\Generated_Source\PSoC5/BPM_ADC.c ****                 {
1646:.\Generated_Source\PSoC5/BPM_ADC.c ****                     flash = BPM_ADC_DEC_TRIM_VREF_2_DIFF_16_20;
  82              		.loc 1 1646 0
  83 0036 1F48     		ldr	r0, .L18+8
  84 0038 0078     		ldrb	r0, [r0]	@ zero_extendqisi2
  85              	.LVL6:
  86 003a 13E0     		b	.L3
  87              	.LVL7:
  88              	.L10:
1647:.\Generated_Source\PSoC5/BPM_ADC.c ****                 }
1648:.\Generated_Source\PSoC5/BPM_ADC.c ****                 else
1649:.\Generated_Source\PSoC5/BPM_ADC.c ****                 {
1650:.\Generated_Source\PSoC5/BPM_ADC.c ****                     flash = BPM_ADC_DEC_TRIM_VREF_2_DIFF_8_15;
  89              		.loc 1 1650 0
  90 003c 1E48     		ldr	r0, .L18+12
  91 003e 0078     		ldrb	r0, [r0]	@ zero_extendqisi2
  92              	.LVL8:
  93 0040 10E0     		b	.L3
  94              	.LVL9:
  95              	.L7:
1651:.\Generated_Source\PSoC5/BPM_ADC.c ****                 }
1652:.\Generated_Source\PSoC5/BPM_ADC.c ****                 break;
1653:.\Generated_Source\PSoC5/BPM_ADC.c **** 
1654:.\Generated_Source\PSoC5/BPM_ADC.c ****             case BPM_ADC_IR_VNEG_VREF_4_DIFF:
1655:.\Generated_Source\PSoC5/BPM_ADC.c ****                 /* Normalize the flash Value */
1656:.\Generated_Source\PSoC5/BPM_ADC.c ****                 if(resolution > 15u)
  96              		.loc 1 1656 0
  97 0042 0F2B     		cmp	r3, #15
  98 0044 02D9     		bls	.L11
1657:.\Generated_Source\PSoC5/BPM_ADC.c ****                 {
1658:.\Generated_Source\PSoC5/BPM_ADC.c ****                     flash = BPM_ADC_DEC_TRIM_VREF_4_DIFF_16_20;
  99              		.loc 1 1658 0
 100 0046 1D48     		ldr	r0, .L18+16
 101 0048 0078     		ldrb	r0, [r0]	@ zero_extendqisi2
 102              	.LVL10:
 103 004a 0BE0     		b	.L3
 104              	.LVL11:
 105              	.L11:
1659:.\Generated_Source\PSoC5/BPM_ADC.c ****                 }
1660:.\Generated_Source\PSoC5/BPM_ADC.c ****                 else
1661:.\Generated_Source\PSoC5/BPM_ADC.c ****                 {
1662:.\Generated_Source\PSoC5/BPM_ADC.c ****                     flash = BPM_ADC_DEC_TRIM_VREF_4_DIFF_8_15;
ARM GAS  C:\Users\student\AppData\Local\Temp\ccHj2j2l.s 			page 32


 106              		.loc 1 1662 0
 107 004c 1C48     		ldr	r0, .L18+20
 108 004e 0078     		ldrb	r0, [r0]	@ zero_extendqisi2
 109              	.LVL12:
 110 0050 08E0     		b	.L3
 111              	.LVL13:
 112              	.L8:
1663:.\Generated_Source\PSoC5/BPM_ADC.c ****                 }
1664:.\Generated_Source\PSoC5/BPM_ADC.c ****                 break;
1665:.\Generated_Source\PSoC5/BPM_ADC.c **** 
1666:.\Generated_Source\PSoC5/BPM_ADC.c ****             case BPM_ADC_IR_VNEG_VREF_16_DIFF:
1667:.\Generated_Source\PSoC5/BPM_ADC.c ****                 /* Normalize the flash Value */
1668:.\Generated_Source\PSoC5/BPM_ADC.c ****                 if(resolution > 15u)
 113              		.loc 1 1668 0
 114 0052 0F2B     		cmp	r3, #15
 115 0054 02D9     		bls	.L12
1669:.\Generated_Source\PSoC5/BPM_ADC.c ****                 {
1670:.\Generated_Source\PSoC5/BPM_ADC.c ****                     flash = BPM_ADC_DEC_TRIM_VREF_16_DIFF_16_20;
 116              		.loc 1 1670 0
 117 0056 1B48     		ldr	r0, .L18+24
 118 0058 0078     		ldrb	r0, [r0]	@ zero_extendqisi2
 119              	.LVL14:
 120 005a 03E0     		b	.L3
 121              	.LVL15:
 122              	.L12:
1671:.\Generated_Source\PSoC5/BPM_ADC.c ****                 }
1672:.\Generated_Source\PSoC5/BPM_ADC.c ****                 else
1673:.\Generated_Source\PSoC5/BPM_ADC.c ****                 {
1674:.\Generated_Source\PSoC5/BPM_ADC.c ****                     flash = BPM_ADC_DEC_TRIM_VREF_16_DIFF_8_15;
 123              		.loc 1 1674 0
 124 005c 1A48     		ldr	r0, .L18+28
 125 005e 0078     		ldrb	r0, [r0]	@ zero_extendqisi2
 126              	.LVL16:
 127 0060 00E0     		b	.L3
 128              	.LVL17:
 129              	.L16:
1675:.\Generated_Source\PSoC5/BPM_ADC.c ****                 }
1676:.\Generated_Source\PSoC5/BPM_ADC.c ****                 break;
1677:.\Generated_Source\PSoC5/BPM_ADC.c **** 
1678:.\Generated_Source\PSoC5/BPM_ADC.c ****             default:
1679:.\Generated_Source\PSoC5/BPM_ADC.c ****                 flash = 0;
 130              		.loc 1 1679 0
 131 0062 0020     		movs	r0, #0
 132              	.L3:
 133              	.LVL18:
1680:.\Generated_Source\PSoC5/BPM_ADC.c ****                 break;
1681:.\Generated_Source\PSoC5/BPM_ADC.c ****         }
1682:.\Generated_Source\PSoC5/BPM_ADC.c **** 
1683:.\Generated_Source\PSoC5/BPM_ADC.c ****         /* Add two values */
1684:.\Generated_Source\PSoC5/BPM_ADC.c **** 		normalised = (int32)idealDecGain + ((int32)flash * 32);
 134              		.loc 1 1684 0
 135 0064 40B2     		sxtb	r0, r0
 136 0066 01EB4011 		add	r1, r1, r0, lsl #5
 137              	.LVL19:
1685:.\Generated_Source\PSoC5/BPM_ADC.c ****         gcorTmp = (uint32)normalised * (uint32)idealOddDecGain;
 138              		.loc 1 1685 0
 139 006a 01FB02F2 		mul	r2, r1, r2
ARM GAS  C:\Users\student\AppData\Local\Temp\ccHj2j2l.s 			page 33


 140              	.LVL20:
1686:.\Generated_Source\PSoC5/BPM_ADC.c ****         gcorValue = (uint16)(gcorTmp / BPM_ADC_IDEAL_GAIN_CONST);
 141              		.loc 1 1686 0
 142 006e D20B     		lsrs	r2, r2, #15
 143              	.LVL21:
 144 0070 91B2     		uxth	r1, r2
 145              	.LVL22:
1687:.\Generated_Source\PSoC5/BPM_ADC.c **** 
1688:.\Generated_Source\PSoC5/BPM_ADC.c ****         if (resolution < (BPM_ADC_MAX_GVAL - 1u))
 146              		.loc 1 1688 0
 147 0072 0D2B     		cmp	r3, #13
 148 0074 0BD8     		bhi	.L13
1689:.\Generated_Source\PSoC5/BPM_ADC.c ****         {
1690:.\Generated_Source\PSoC5/BPM_ADC.c ****             gcorValue = (gcorValue >> (BPM_ADC_MAX_GVAL - (resolution + 1u)));
 149              		.loc 1 1690 0
 150 0076 C3F10E01 		rsb	r1, r3, #14
 151              	.LVL23:
 152 007a 92B2     		uxth	r2, r2
 153 007c 0A41     		asrs	r2, r2, r1
 154              	.LVL24:
 155 007e 91B2     		uxth	r1, r2
 156              	.LVL25:
1691:.\Generated_Source\PSoC5/BPM_ADC.c ****             BPM_ADC_gcor[config - 1u].gval = (resolution + 1u);
 157              		.loc 1 1691 0
 158 0080 124A     		ldr	r2, .L18+32
 159 0082 02EB8402 		add	r2, r2, r4, lsl #2
 160 0086 0133     		adds	r3, r3, #1
 161              	.LVL26:
 162 0088 02F8023C 		strb	r3, [r2, #-2]
 163 008c 05E0     		b	.L14
 164              	.LVL27:
 165              	.L13:
1692:.\Generated_Source\PSoC5/BPM_ADC.c ****         }
1693:.\Generated_Source\PSoC5/BPM_ADC.c ****         else
1694:.\Generated_Source\PSoC5/BPM_ADC.c ****         {
1695:.\Generated_Source\PSoC5/BPM_ADC.c ****             /* Use all 16 bits */
1696:.\Generated_Source\PSoC5/BPM_ADC.c ****             BPM_ADC_gcor[config - 1u].gval = BPM_ADC_MAX_GVAL;
 166              		.loc 1 1696 0
 167 008e 0F4B     		ldr	r3, .L18+32
 168              	.LVL28:
 169 0090 03EB8403 		add	r3, r3, r4, lsl #2
 170 0094 0F22     		movs	r2, #15
 171 0096 03F8022C 		strb	r2, [r3, #-2]
 172              	.L14:
1697:.\Generated_Source\PSoC5/BPM_ADC.c ****         }
1698:.\Generated_Source\PSoC5/BPM_ADC.c **** 
1699:.\Generated_Source\PSoC5/BPM_ADC.c ****         /* Save the gain correction register value */
1700:.\Generated_Source\PSoC5/BPM_ADC.c ****         BPM_ADC_gcor[config - 1u].gcor = gcorValue;
 173              		.loc 1 1700 0
 174 009a 013C     		subs	r4, r4, #1
 175 009c 0B4B     		ldr	r3, .L18+32
 176 009e 23F82410 		strh	r1, [r3, r4, lsl #2]	@ movhi
 177 00a2 38BD     		pop	{r3, r4, r5, pc}
 178              	.LVL29:
 179              	.L2:
1701:.\Generated_Source\PSoC5/BPM_ADC.c ****     }
1702:.\Generated_Source\PSoC5/BPM_ADC.c ****     else
ARM GAS  C:\Users\student\AppData\Local\Temp\ccHj2j2l.s 			page 34


1703:.\Generated_Source\PSoC5/BPM_ADC.c ****     {
1704:.\Generated_Source\PSoC5/BPM_ADC.c ****         /* Halt CPU in debug mode if config is out of valid range */
1705:.\Generated_Source\PSoC5/BPM_ADC.c ****         CYASSERT(0u != 0u);
 180              		.loc 1 1705 0 discriminator 1
 181 00a4 0020     		movs	r0, #0
 182              	.LVL30:
 183 00a6 FFF7FEFF 		bl	CyHalt
 184              	.LVL31:
 185 00aa 38BD     		pop	{r3, r4, r5, pc}
 186              	.LVL32:
 187              	.L19:
 188              		.align	2
 189              	.L18:
 190 00ac 18010049 		.word	1224737048
 191 00b0 1C010049 		.word	1224737052
 192 00b4 19010049 		.word	1224737049
 193 00b8 1D010049 		.word	1224737053
 194 00bc 1A010049 		.word	1224737050
 195 00c0 1E010049 		.word	1224737054
 196 00c4 1B010049 		.word	1224737051
 197 00c8 1F010049 		.word	1224737055
 198 00cc 00000000 		.word	.LANCHOR0
 199              		.cfi_endproc
 200              	.LFE21:
 201              		.size	BPM_ADC_GainCompensation, .-BPM_ADC_GainCompensation
 202              		.section	.text.BPM_ADC_SetDSMRef0Reg,"ax",%progbits
 203              		.align	2
 204              		.thumb
 205              		.thumb_func
 206              		.type	BPM_ADC_SetDSMRef0Reg, %function
 207              	BPM_ADC_SetDSMRef0Reg:
 208              	.LFB22:
1706:.\Generated_Source\PSoC5/BPM_ADC.c ****     }
1707:.\Generated_Source\PSoC5/BPM_ADC.c **** }
1708:.\Generated_Source\PSoC5/BPM_ADC.c **** 
1709:.\Generated_Source\PSoC5/BPM_ADC.c **** 
1710:.\Generated_Source\PSoC5/BPM_ADC.c **** /******************************************************************************
1711:.\Generated_Source\PSoC5/BPM_ADC.c **** * Function Name: BPM_ADC_SetDSMRef0Reg(uint8)
1712:.\Generated_Source\PSoC5/BPM_ADC.c **** ******************************************************************************
1713:.\Generated_Source\PSoC5/BPM_ADC.c **** *
1714:.\Generated_Source\PSoC5/BPM_ADC.c **** * Summary:
1715:.\Generated_Source\PSoC5/BPM_ADC.c **** *  This API sets the DSM_REF0 register. This is written for internal use.
1716:.\Generated_Source\PSoC5/BPM_ADC.c **** *
1717:.\Generated_Source\PSoC5/BPM_ADC.c **** * Parameters:
1718:.\Generated_Source\PSoC5/BPM_ADC.c **** *  value:  Value to be written to DSM_REF0 register.
1719:.\Generated_Source\PSoC5/BPM_ADC.c **** *
1720:.\Generated_Source\PSoC5/BPM_ADC.c **** * Return:
1721:.\Generated_Source\PSoC5/BPM_ADC.c **** *  None
1722:.\Generated_Source\PSoC5/BPM_ADC.c **** *
1723:.\Generated_Source\PSoC5/BPM_ADC.c **** ******************************************************************************/
1724:.\Generated_Source\PSoC5/BPM_ADC.c **** static void BPM_ADC_SetDSMRef0Reg(uint8 value) 
1725:.\Generated_Source\PSoC5/BPM_ADC.c **** {
 209              		.loc 1 1725 0
 210              		.cfi_startproc
 211              		@ args = 0, pretend = 0, frame = 0
 212              		@ frame_needed = 0, uses_anonymous_args = 0
 213              	.LVL33:
ARM GAS  C:\Users\student\AppData\Local\Temp\ccHj2j2l.s 			page 35


 214 0000 F8B5     		push	{r3, r4, r5, r6, r7, lr}
 215              		.cfi_def_cfa_offset 24
 216              		.cfi_offset 3, -24
 217              		.cfi_offset 4, -20
 218              		.cfi_offset 5, -16
 219              		.cfi_offset 6, -12
 220              		.cfi_offset 7, -8
 221              		.cfi_offset 14, -4
 222 0002 0746     		mov	r7, r0
1726:.\Generated_Source\PSoC5/BPM_ADC.c ****     uint8 enableInterrupts;
1727:.\Generated_Source\PSoC5/BPM_ADC.c ****     enableInterrupts = CyEnterCriticalSection();
 223              		.loc 1 1727 0
 224 0004 FFF7FEFF 		bl	CyEnterCriticalSection
 225              	.LVL34:
 226 0008 0646     		mov	r6, r0
 227              	.LVL35:
1728:.\Generated_Source\PSoC5/BPM_ADC.c **** 
1729:.\Generated_Source\PSoC5/BPM_ADC.c ****     /* Disable PRES, Enable power to VCMBUF0, REFBUF0 and REFBUF1, enable PRES */
1730:.\Generated_Source\PSoC5/BPM_ADC.c ****     BPM_ADC_RESET_CR4_REG |= (BPM_ADC_IGNORE_PRESA1 | BPM_ADC_IGNORE_PRESD1);
 228              		.loc 1 1730 0
 229 000a 0D4D     		ldr	r5, .L22
 230 000c 2B78     		ldrb	r3, [r5]	@ zero_extendqisi2
 231 000e 43F00303 		orr	r3, r3, #3
 232 0012 2B70     		strb	r3, [r5]
1731:.\Generated_Source\PSoC5/BPM_ADC.c ****     BPM_ADC_RESET_CR5_REG |= (BPM_ADC_IGNORE_PRESA2 | BPM_ADC_IGNORE_PRESD2);
 233              		.loc 1 1731 0
 234 0014 0B4C     		ldr	r4, .L22+4
 235 0016 2378     		ldrb	r3, [r4]	@ zero_extendqisi2
 236 0018 43F00303 		orr	r3, r3, #3
 237 001c 2370     		strb	r3, [r4]
1732:.\Generated_Source\PSoC5/BPM_ADC.c ****     BPM_ADC_DSM_REF0_REG = value;
 238              		.loc 1 1732 0
 239 001e 0A4B     		ldr	r3, .L22+8
 240 0020 1F70     		strb	r7, [r3]
1733:.\Generated_Source\PSoC5/BPM_ADC.c **** 
1734:.\Generated_Source\PSoC5/BPM_ADC.c ****     /* Wait for 3 microseconds */
1735:.\Generated_Source\PSoC5/BPM_ADC.c ****     CyDelayUs(BPM_ADC_PRES_DELAY_TIME);
 241              		.loc 1 1735 0
 242 0022 0320     		movs	r0, #3
 243 0024 FFF7FEFF 		bl	CyDelayUs
 244              	.LVL36:
1736:.\Generated_Source\PSoC5/BPM_ADC.c ****     /* Enable the press circuit */
1737:.\Generated_Source\PSoC5/BPM_ADC.c ****     BPM_ADC_RESET_CR4_REG &= (uint8)~(BPM_ADC_IGNORE_PRESA1 | BPM_ADC_IGNORE_PRESD1);
 245              		.loc 1 1737 0
 246 0028 2B78     		ldrb	r3, [r5]	@ zero_extendqisi2
 247 002a 03F0FC03 		and	r3, r3, #252
 248 002e 2B70     		strb	r3, [r5]
1738:.\Generated_Source\PSoC5/BPM_ADC.c ****     BPM_ADC_RESET_CR5_REG &= (uint8)~(BPM_ADC_IGNORE_PRESA2 | BPM_ADC_IGNORE_PRESD2);
 249              		.loc 1 1738 0
 250 0030 2378     		ldrb	r3, [r4]	@ zero_extendqisi2
 251 0032 03F0FC03 		and	r3, r3, #252
 252 0036 2370     		strb	r3, [r4]
1739:.\Generated_Source\PSoC5/BPM_ADC.c **** 
1740:.\Generated_Source\PSoC5/BPM_ADC.c ****     CyExitCriticalSection(enableInterrupts);
 253              		.loc 1 1740 0
 254 0038 3046     		mov	r0, r6
 255 003a FFF7FEFF 		bl	CyExitCriticalSection
ARM GAS  C:\Users\student\AppData\Local\Temp\ccHj2j2l.s 			page 36


 256              	.LVL37:
 257 003e F8BD     		pop	{r3, r4, r5, r6, r7, pc}
 258              	.LVL38:
 259              	.L23:
 260              		.align	2
 261              	.L22:
 262 0040 F8460040 		.word	1073759992
 263 0044 F9460040 		.word	1073759993
 264 0048 92580040 		.word	1073764498
 265              		.cfi_endproc
 266              	.LFE22:
 267              		.size	BPM_ADC_SetDSMRef0Reg, .-BPM_ADC_SetDSMRef0Reg
 268              		.section	.text.BPM_ADC_InitConfig,"ax",%progbits
 269              		.align	2
 270              		.thumb
 271              		.thumb_func
 272              		.type	BPM_ADC_InitConfig, %function
 273              	BPM_ADC_InitConfig:
 274              	.LFB19:
1243:.\Generated_Source\PSoC5/BPM_ADC.c ****     BPM_ADC_stopConversion = 0u;
 275              		.loc 1 1243 0
 276              		.cfi_startproc
 277              		@ args = 0, pretend = 0, frame = 0
 278              		@ frame_needed = 0, uses_anonymous_args = 0
 279              	.LVL39:
 280 0000 F8B5     		push	{r3, r4, r5, r6, r7, lr}
 281              		.cfi_def_cfa_offset 24
 282              		.cfi_offset 3, -24
 283              		.cfi_offset 4, -20
 284              		.cfi_offset 5, -16
 285              		.cfi_offset 6, -12
 286              		.cfi_offset 7, -8
 287              		.cfi_offset 14, -4
 288 0002 0446     		mov	r4, r0
1244:.\Generated_Source\PSoC5/BPM_ADC.c **** 
 289              		.loc 1 1244 0
 290 0004 0022     		movs	r2, #0
 291 0006 C04B     		ldr	r3, .L30
 292 0008 1A74     		strb	r2, [r3, #16]
1246:.\Generated_Source\PSoC5/BPM_ADC.c ****     {
 293              		.loc 1 1246 0
 294 000a 0128     		cmp	r0, #1
 295 000c 5BD1     		bne	.L25
1249:.\Generated_Source\PSoC5/BPM_ADC.c ****         BPM_ADC_DEC_SHIFT1_REG  = BPM_ADC_CFG1_DEC_SHIFT1;
 296              		.loc 1 1249 0
 297 000e 3422     		movs	r2, #52
 298 0010 BE4B     		ldr	r3, .L30+4
 299 0012 1A70     		strb	r2, [r3]
1250:.\Generated_Source\PSoC5/BPM_ADC.c ****         BPM_ADC_DEC_SHIFT2_REG  = BPM_ADC_CFG1_DEC_SHIFT2;
 300              		.loc 1 1250 0
 301 0014 0622     		movs	r2, #6
 302 0016 0233     		adds	r3, r3, #2
 303 0018 1A70     		strb	r2, [r3]
1251:.\Generated_Source\PSoC5/BPM_ADC.c ****         BPM_ADC_DEC_DR2_REG     = BPM_ADC_CFG1_DEC_DR2;
 304              		.loc 1 1251 0
 305 001a 0822     		movs	r2, #8
 306 001c 0133     		adds	r3, r3, #1
ARM GAS  C:\Users\student\AppData\Local\Temp\ccHj2j2l.s 			page 37


 307 001e 1A70     		strb	r2, [r3]
1252:.\Generated_Source\PSoC5/BPM_ADC.c ****         BPM_ADC_DEC_DR2H_REG    = BPM_ADC_CFG1_DEC_DR2H;
 308              		.loc 1 1252 0
 309 0020 0025     		movs	r5, #0
 310 0022 0133     		adds	r3, r3, #1
 311 0024 1D70     		strb	r5, [r3]
1253:.\Generated_Source\PSoC5/BPM_ADC.c ****         BPM_ADC_DEC_DR1_REG     = BPM_ADC_CFG1_DEC_DR1;
 312              		.loc 1 1253 0
 313 0026 0133     		adds	r3, r3, #1
 314 0028 1D70     		strb	r5, [r3]
1254:.\Generated_Source\PSoC5/BPM_ADC.c ****         BPM_ADC_DEC_OCOR_REG    = BPM_ADC_CFG1_DEC_OCOR;
 315              		.loc 1 1254 0
 316 002a 1F22     		movs	r2, #31
 317 002c 0133     		adds	r3, r3, #1
 318 002e 1A70     		strb	r2, [r3]
1255:.\Generated_Source\PSoC5/BPM_ADC.c ****         BPM_ADC_DEC_OCORM_REG   = BPM_ADC_CFG1_DEC_OCORM;
 319              		.loc 1 1255 0
 320 0030 0233     		adds	r3, r3, #2
 321 0032 1D70     		strb	r5, [r3]
1256:.\Generated_Source\PSoC5/BPM_ADC.c ****         BPM_ADC_DEC_OCORH_REG   = BPM_ADC_CFG1_DEC_OCORH;
 322              		.loc 1 1256 0
 323 0034 0133     		adds	r3, r3, #1
 324 0036 1D70     		strb	r5, [r3]
1257:.\Generated_Source\PSoC5/BPM_ADC.c ****         BPM_ADC_DEC_COHER_REG   = BPM_ADC_CFG1_DEC_COHER;
 325              		.loc 1 1257 0
 326 0038 0133     		adds	r3, r3, #1
 327 003a 1D70     		strb	r5, [r3]
1258:.\Generated_Source\PSoC5/BPM_ADC.c **** 
 328              		.loc 1 1258 0
 329 003c 0126     		movs	r6, #1
 330 003e 0A33     		adds	r3, r3, #10
 331 0040 1E70     		strb	r6, [r3]
1260:.\Generated_Source\PSoC5/BPM_ADC.c ****         BPM_ADC_DSM_CR5_REG     = BPM_ADC_CFG1_DSM_CR5;
 332              		.loc 1 1260 0
 333 0042 1422     		movs	r2, #20
 334 0044 03F52763 		add	r3, r3, #2672
 335 0048 1A70     		strb	r2, [r3]
1261:.\Generated_Source\PSoC5/BPM_ADC.c ****         BPM_ADC_DSM_CR6_REG     = BPM_ADC_CFG1_DSM_CR6;
 336              		.loc 1 1261 0
 337 004a 0527     		movs	r7, #5
 338 004c 0133     		adds	r3, r3, #1
 339 004e 1F70     		strb	r7, [r3]
1262:.\Generated_Source\PSoC5/BPM_ADC.c ****         BPM_ADC_DSM_CR7_REG     = BPM_ADC_CFG1_DSM_CR7;
 340              		.loc 1 1262 0
 341 0050 1622     		movs	r2, #22
 342 0052 0133     		adds	r3, r3, #1
 343 0054 1A70     		strb	r2, [r3]
1263:.\Generated_Source\PSoC5/BPM_ADC.c ****         BPM_ADC_DSM_CR10_REG    = BPM_ADC_CFG1_DSM_CR10;
 344              		.loc 1 1263 0
 345 0056 0133     		adds	r3, r3, #1
 346 0058 1D70     		strb	r5, [r3]
1264:.\Generated_Source\PSoC5/BPM_ADC.c ****         BPM_ADC_DSM_CR11_REG    = BPM_ADC_CFG1_DSM_CR11;
 347              		.loc 1 1264 0
 348 005a 4422     		movs	r2, #68
 349 005c 0333     		adds	r3, r3, #3
 350 005e 1A70     		strb	r2, [r3]
1265:.\Generated_Source\PSoC5/BPM_ADC.c ****         BPM_ADC_DSM_CR12_REG    = BPM_ADC_CFG1_DSM_CR12;
ARM GAS  C:\Users\student\AppData\Local\Temp\ccHj2j2l.s 			page 38


 351              		.loc 1 1265 0
 352 0060 4822     		movs	r2, #72
 353 0062 0133     		adds	r3, r3, #1
 354 0064 1A70     		strb	r2, [r3]
1266:.\Generated_Source\PSoC5/BPM_ADC.c ****         BPM_ADC_DSM_CR14_REG    = BPM_ADC_CFG1_DSM_CR14;
 355              		.loc 1 1266 0
 356 0066 0133     		adds	r3, r3, #1
 357 0068 1E70     		strb	r6, [r3]
1267:.\Generated_Source\PSoC5/BPM_ADC.c ****         BPM_ADC_DSM_CR15_REG    = BPM_ADC_CFG1_DSM_CR15;
 358              		.loc 1 1267 0
 359 006a 0233     		adds	r3, r3, #2
 360 006c 1D70     		strb	r5, [r3]
1268:.\Generated_Source\PSoC5/BPM_ADC.c ****         BPM_ADC_DSM_CR16_REG    = BPM_ADC_CFG1_DSM_CR16;
 361              		.loc 1 1268 0
 362 006e 0133     		adds	r3, r3, #1
 363 0070 1D70     		strb	r5, [r3]
1269:.\Generated_Source\PSoC5/BPM_ADC.c ****         BPM_ADC_DSM_CR17_REG    = BPM_ADC_CFG1_DSM_CR17;
 364              		.loc 1 1269 0
 365 0072 0A22     		movs	r2, #10
 366 0074 0133     		adds	r3, r3, #1
 367 0076 1A70     		strb	r2, [r3]
1270:.\Generated_Source\PSoC5/BPM_ADC.c ****         /* Set DSM_REF0_REG by disabling and enabling the PRESS circuit */
 368              		.loc 1 1270 0
 369 0078 4322     		movs	r2, #67
 370 007a 0133     		adds	r3, r3, #1
 371 007c 1A70     		strb	r2, [r3]
1272:.\Generated_Source\PSoC5/BPM_ADC.c ****         BPM_ADC_DSM_REF2_REG    = BPM_ADC_CFG1_DSM_REF2;
 372              		.loc 1 1272 0
 373 007e 5220     		movs	r0, #82
 374              	.LVL40:
 375 0080 FFF7FEFF 		bl	BPM_ADC_SetDSMRef0Reg
 376              	.LVL41:
1273:.\Generated_Source\PSoC5/BPM_ADC.c ****         BPM_ADC_DSM_REF3_REG    = BPM_ADC_CFG1_DSM_REF3;
 377              		.loc 1 1273 0
 378 0084 5822     		movs	r2, #88
 379 0086 A24B     		ldr	r3, .L30+8
 380 0088 1A70     		strb	r2, [r3]
1274:.\Generated_Source\PSoC5/BPM_ADC.c **** 
 381              		.loc 1 1274 0
 382 008a 0133     		adds	r3, r3, #1
 383 008c 1D70     		strb	r5, [r3]
1276:.\Generated_Source\PSoC5/BPM_ADC.c ****         BPM_ADC_DSM_BUF1_REG    = BPM_ADC_CFG1_DSM_BUF1;
 384              		.loc 1 1276 0
 385 008e 0533     		adds	r3, r3, #5
 386 0090 1F70     		strb	r7, [r3]
1277:.\Generated_Source\PSoC5/BPM_ADC.c ****         BPM_ADC_DSM_BUF2_REG    = BPM_ADC_CFG1_DSM_BUF2;
 387              		.loc 1 1277 0
 388 0092 0222     		movs	r2, #2
 389 0094 0133     		adds	r3, r3, #1
 390 0096 1A70     		strb	r2, [r3]
1278:.\Generated_Source\PSoC5/BPM_ADC.c ****         BPM_ADC_DSM_BUF3_REG    = BPM_ADC_CFG1_DSM_BUF3;
 391              		.loc 1 1278 0
 392 0098 0133     		adds	r3, r3, #1
 393 009a 1D70     		strb	r5, [r3]
1279:.\Generated_Source\PSoC5/BPM_ADC.c **** 
 394              		.loc 1 1279 0
 395 009c 0133     		adds	r3, r3, #1
ARM GAS  C:\Users\student\AppData\Local\Temp\ccHj2j2l.s 			page 39


 396 009e 1D70     		strb	r5, [r3]
1288:.\Generated_Source\PSoC5/BPM_ADC.c ****             #endif /* BPM_ADC_IR_VSSA_TO_2VREF) */
 397              		.loc 1 1288 0
 398 00a0 2846     		mov	r0, r5
 399 00a2 FFF7FEFF 		bl	BPM_ADC_AMux_Select
 400              	.LVL42:
1300:.\Generated_Source\PSoC5/BPM_ADC.c **** 
 401              		.loc 1 1300 0
 402 00a6 40F23332 		movw	r2, #819
 403 00aa 9A4B     		ldr	r3, .L30+12
 404 00ac 1A60     		str	r2, [r3]
1302:.\Generated_Source\PSoC5/BPM_ADC.c **** 
 405              		.loc 1 1302 0
 406 00ae 2C20     		movs	r0, #44
 407 00b0 3146     		mov	r1, r6
 408 00b2 FFF7FEFF 		bl	BPM_ADC_Ext_CP_Clk_SetDividerRegister
 409              	.LVL43:
1306:.\Generated_Source\PSoC5/BPM_ADC.c ****         #endif /* BPM_ADC_DEFAULT_INTERNAL_CLK */
 410              		.loc 1 1306 0
 411 00b6 B620     		movs	r0, #182
 412 00b8 3146     		mov	r1, r6
 413 00ba FFF7FEFF 		bl	BPM_ADC_theACLK_SetDividerRegister
 414              	.LVL44:
1311:.\Generated_Source\PSoC5/BPM_ADC.c ****         #endif   /* End BPM_ADC_IRQ_REMOVE */
 415              		.loc 1 1311 0
 416 00be 1D20     		movs	r0, #29
 417 00c0 9549     		ldr	r1, .L30+16
 418 00c2 FFF7FEFF 		bl	CyIntSetVector
 419              	.LVL45:
 420              	.L25:
1316:.\Generated_Source\PSoC5/BPM_ADC.c ****         {
 421              		.loc 1 1316 0
 422 00c6 022C     		cmp	r4, #2
 423 00c8 5DD1     		bne	.L26
1319:.\Generated_Source\PSoC5/BPM_ADC.c ****             BPM_ADC_DEC_SHIFT1_REG  = BPM_ADC_CFG2_DEC_SHIFT1;
 424              		.loc 1 1319 0
 425 00ca 3822     		movs	r2, #56
 426 00cc 8F4B     		ldr	r3, .L30+4
 427 00ce 1A70     		strb	r2, [r3]
1320:.\Generated_Source\PSoC5/BPM_ADC.c ****             BPM_ADC_DEC_SHIFT2_REG  = BPM_ADC_CFG2_DEC_SHIFT2;
 428              		.loc 1 1320 0
 429 00d0 0422     		movs	r2, #4
 430 00d2 0233     		adds	r3, r3, #2
 431 00d4 1A70     		strb	r2, [r3]
1321:.\Generated_Source\PSoC5/BPM_ADC.c ****             BPM_ADC_DEC_DR2_REG     = BPM_ADC_CFG2_DEC_DR2;
 432              		.loc 1 1321 0
 433 00d6 0622     		movs	r2, #6
 434 00d8 0133     		adds	r3, r3, #1
 435 00da 1A70     		strb	r2, [r3]
1322:.\Generated_Source\PSoC5/BPM_ADC.c ****             BPM_ADC_DEC_DR2H_REG    = BPM_ADC_CFG2_DEC_DR2H;
 436              		.loc 1 1322 0
 437 00dc 0025     		movs	r5, #0
 438 00de 0133     		adds	r3, r3, #1
 439 00e0 1D70     		strb	r5, [r3]
1323:.\Generated_Source\PSoC5/BPM_ADC.c ****             BPM_ADC_DEC_DR1_REG     = BPM_ADC_CFG2_DEC_DR1;
 440              		.loc 1 1323 0
 441 00e2 0133     		adds	r3, r3, #1
ARM GAS  C:\Users\student\AppData\Local\Temp\ccHj2j2l.s 			page 40


 442 00e4 1D70     		strb	r5, [r3]
1324:.\Generated_Source\PSoC5/BPM_ADC.c ****             BPM_ADC_DEC_OCOR_REG    = BPM_ADC_CFG2_DEC_OCOR;
 443              		.loc 1 1324 0
 444 00e6 3F22     		movs	r2, #63
 445 00e8 0133     		adds	r3, r3, #1
 446 00ea 1A70     		strb	r2, [r3]
1325:.\Generated_Source\PSoC5/BPM_ADC.c ****             BPM_ADC_DEC_OCORM_REG   = BPM_ADC_CFG2_DEC_OCORM;
 447              		.loc 1 1325 0
 448 00ec 0233     		adds	r3, r3, #2
 449 00ee 1D70     		strb	r5, [r3]
1326:.\Generated_Source\PSoC5/BPM_ADC.c ****             BPM_ADC_DEC_OCORH_REG   = BPM_ADC_CFG2_DEC_OCORH;
 450              		.loc 1 1326 0
 451 00f0 0133     		adds	r3, r3, #1
 452 00f2 1D70     		strb	r5, [r3]
1327:.\Generated_Source\PSoC5/BPM_ADC.c ****             BPM_ADC_DEC_COHER_REG   = BPM_ADC_CFG2_DEC_COHER;
 453              		.loc 1 1327 0
 454 00f4 0133     		adds	r3, r3, #1
 455 00f6 1D70     		strb	r5, [r3]
1328:.\Generated_Source\PSoC5/BPM_ADC.c **** 
 456              		.loc 1 1328 0
 457 00f8 0126     		movs	r6, #1
 458 00fa 0A33     		adds	r3, r3, #10
 459 00fc 1E70     		strb	r6, [r3]
1330:.\Generated_Source\PSoC5/BPM_ADC.c ****             BPM_ADC_DSM_CR5_REG     = BPM_ADC_CFG2_DSM_CR5;
 460              		.loc 1 1330 0
 461 00fe 5022     		movs	r2, #80
 462 0100 03F52763 		add	r3, r3, #2672
 463 0104 1A70     		strb	r2, [r3]
1331:.\Generated_Source\PSoC5/BPM_ADC.c ****             BPM_ADC_DSM_CR6_REG     = BPM_ADC_CFG2_DSM_CR6;
 464              		.loc 1 1331 0
 465 0106 2722     		movs	r2, #39
 466 0108 0133     		adds	r3, r3, #1
 467 010a 1A70     		strb	r2, [r3]
1332:.\Generated_Source\PSoC5/BPM_ADC.c ****             BPM_ADC_DSM_CR7_REG     = BPM_ADC_CFG2_DSM_CR7;
 468              		.loc 1 1332 0
 469 010c 2C22     		movs	r2, #44
 470 010e 0133     		adds	r3, r3, #1
 471 0110 1A70     		strb	r2, [r3]
1333:.\Generated_Source\PSoC5/BPM_ADC.c ****             BPM_ADC_DSM_CR10_REG    = BPM_ADC_CFG2_DSM_CR10;
 472              		.loc 1 1333 0
 473 0112 0133     		adds	r3, r3, #1
 474 0114 1D70     		strb	r5, [r3]
1334:.\Generated_Source\PSoC5/BPM_ADC.c ****             BPM_ADC_DSM_CR11_REG    = BPM_ADC_CFG2_DSM_CR11;
 475              		.loc 1 1334 0
 476 0116 5522     		movs	r2, #85
 477 0118 0333     		adds	r3, r3, #3
 478 011a 1A70     		strb	r2, [r3]
1335:.\Generated_Source\PSoC5/BPM_ADC.c ****             BPM_ADC_DSM_CR12_REG    = BPM_ADC_CFG2_DSM_CR12;
 479              		.loc 1 1335 0
 480 011c 5A22     		movs	r2, #90
 481 011e 0133     		adds	r3, r3, #1
 482 0120 1A70     		strb	r2, [r3]
1336:.\Generated_Source\PSoC5/BPM_ADC.c ****             BPM_ADC_DSM_CR14_REG    = BPM_ADC_CFG2_DSM_CR14;
 483              		.loc 1 1336 0
 484 0122 0527     		movs	r7, #5
 485 0124 0133     		adds	r3, r3, #1
 486 0126 1F70     		strb	r7, [r3]
ARM GAS  C:\Users\student\AppData\Local\Temp\ccHj2j2l.s 			page 41


1337:.\Generated_Source\PSoC5/BPM_ADC.c ****             BPM_ADC_DSM_CR15_REG    = BPM_ADC_CFG2_DSM_CR15;
 487              		.loc 1 1337 0
 488 0128 0233     		adds	r3, r3, #2
 489 012a 1E70     		strb	r6, [r3]
1338:.\Generated_Source\PSoC5/BPM_ADC.c ****             BPM_ADC_DSM_CR16_REG    = BPM_ADC_CFG2_DSM_CR16;
 490              		.loc 1 1338 0
 491 012c 1122     		movs	r2, #17
 492 012e 0133     		adds	r3, r3, #1
 493 0130 1A70     		strb	r2, [r3]
1339:.\Generated_Source\PSoC5/BPM_ADC.c ****             BPM_ADC_DSM_CR17_REG    = BPM_ADC_CFG2_DSM_CR17;
 494              		.loc 1 1339 0
 495 0132 1922     		movs	r2, #25
 496 0134 0133     		adds	r3, r3, #1
 497 0136 1A70     		strb	r2, [r3]
1340:.\Generated_Source\PSoC5/BPM_ADC.c ****             /* Set DSM_REF0_REG by disabling and enabling the PRESS cirucit */
 498              		.loc 1 1340 0
 499 0138 9722     		movs	r2, #151
 500 013a 0133     		adds	r3, r3, #1
 501 013c 1A70     		strb	r2, [r3]
1342:.\Generated_Source\PSoC5/BPM_ADC.c ****             BPM_ADC_DSM_REF2_REG    = BPM_ADC_CFG2_DSM_REF2;
 502              		.loc 1 1342 0
 503 013e 4420     		movs	r0, #68
 504 0140 FFF7FEFF 		bl	BPM_ADC_SetDSMRef0Reg
 505              	.LVL46:
1343:.\Generated_Source\PSoC5/BPM_ADC.c ****             BPM_ADC_DSM_REF3_REG    = BPM_ADC_CFG2_DSM_REF3;
 506              		.loc 1 1343 0
 507 0144 5822     		movs	r2, #88
 508 0146 724B     		ldr	r3, .L30+8
 509 0148 1A70     		strb	r2, [r3]
1344:.\Generated_Source\PSoC5/BPM_ADC.c **** 
 510              		.loc 1 1344 0
 511 014a 0133     		adds	r3, r3, #1
 512 014c 1D70     		strb	r5, [r3]
1346:.\Generated_Source\PSoC5/BPM_ADC.c ****             BPM_ADC_DSM_BUF1_REG    = BPM_ADC_CFG2_DSM_BUF1;
 513              		.loc 1 1346 0
 514 014e 0533     		adds	r3, r3, #5
 515 0150 1F70     		strb	r7, [r3]
1347:.\Generated_Source\PSoC5/BPM_ADC.c ****             BPM_ADC_DSM_BUF2_REG    = BPM_ADC_CFG2_DSM_BUF2;
 516              		.loc 1 1347 0
 517 0152 0222     		movs	r2, #2
 518 0154 0133     		adds	r3, r3, #1
 519 0156 1A70     		strb	r2, [r3]
1348:.\Generated_Source\PSoC5/BPM_ADC.c ****             BPM_ADC_DSM_BUF3_REG    = BPM_ADC_CFG2_DSM_BUF3;
 520              		.loc 1 1348 0
 521 0158 0133     		adds	r3, r3, #1
 522 015a 1D70     		strb	r5, [r3]
1349:.\Generated_Source\PSoC5/BPM_ADC.c **** 
 523              		.loc 1 1349 0
 524 015c 0133     		adds	r3, r3, #1
 525 015e 1D70     		strb	r5, [r3]
1359:.\Generated_Source\PSoC5/BPM_ADC.c ****                 #endif /* BPM_ADC_IR_VSSA_TO_2VREF) */
 526              		.loc 1 1359 0
 527 0160 2846     		mov	r0, r5
 528 0162 FFF7FEFF 		bl	BPM_ADC_AMux_Select
 529              	.LVL47:
1371:.\Generated_Source\PSoC5/BPM_ADC.c **** 
 530              		.loc 1 1371 0
ARM GAS  C:\Users\student\AppData\Local\Temp\ccHj2j2l.s 			page 42


 531 0166 4FF47A42 		mov	r2, #64000
 532 016a 6A4B     		ldr	r3, .L30+12
 533 016c 1A60     		str	r2, [r3]
1373:.\Generated_Source\PSoC5/BPM_ADC.c **** 
 534              		.loc 1 1373 0
 535 016e 0820     		movs	r0, #8
 536 0170 3146     		mov	r1, r6
 537 0172 FFF7FEFF 		bl	BPM_ADC_Ext_CP_Clk_SetDividerRegister
 538              	.LVL48:
1377:.\Generated_Source\PSoC5/BPM_ADC.c ****             #endif /* BPM_ADC_DEFAULT_INTERNAL_CLK */
 539              		.loc 1 1377 0
 540 0176 2520     		movs	r0, #37
 541 0178 3146     		mov	r1, r6
 542 017a FFF7FEFF 		bl	BPM_ADC_theACLK_SetDividerRegister
 543              	.LVL49:
1382:.\Generated_Source\PSoC5/BPM_ADC.c ****             #endif   /* End BPM_ADC_IRQ_REMOVE */
 544              		.loc 1 1382 0
 545 017e 1D20     		movs	r0, #29
 546 0180 6649     		ldr	r1, .L30+20
 547 0182 FFF7FEFF 		bl	CyIntSetVector
 548              	.LVL50:
 549              	.L26:
1388:.\Generated_Source\PSoC5/BPM_ADC.c ****         {
 550              		.loc 1 1388 0
 551 0186 032C     		cmp	r4, #3
 552 0188 5DD1     		bne	.L27
1391:.\Generated_Source\PSoC5/BPM_ADC.c ****             BPM_ADC_DEC_SHIFT1_REG  = BPM_ADC_CFG3_DEC_SHIFT1;
 553              		.loc 1 1391 0
 554 018a 3822     		movs	r2, #56
 555 018c 5F4B     		ldr	r3, .L30+4
 556 018e 1A70     		strb	r2, [r3]
1392:.\Generated_Source\PSoC5/BPM_ADC.c ****             BPM_ADC_DEC_SHIFT2_REG  = BPM_ADC_CFG3_DEC_SHIFT2;
 557              		.loc 1 1392 0
 558 0190 0422     		movs	r2, #4
 559 0192 0233     		adds	r3, r3, #2
 560 0194 1A70     		strb	r2, [r3]
1393:.\Generated_Source\PSoC5/BPM_ADC.c ****             BPM_ADC_DEC_DR2_REG     = BPM_ADC_CFG3_DEC_DR2;
 561              		.loc 1 1393 0
 562 0196 0622     		movs	r2, #6
 563 0198 0133     		adds	r3, r3, #1
 564 019a 1A70     		strb	r2, [r3]
1394:.\Generated_Source\PSoC5/BPM_ADC.c ****             BPM_ADC_DEC_DR2H_REG    = BPM_ADC_CFG3_DEC_DR2H;
 565              		.loc 1 1394 0
 566 019c 0025     		movs	r5, #0
 567 019e 0133     		adds	r3, r3, #1
 568 01a0 1D70     		strb	r5, [r3]
1395:.\Generated_Source\PSoC5/BPM_ADC.c ****             BPM_ADC_DEC_DR1_REG     = BPM_ADC_CFG3_DEC_DR1;
 569              		.loc 1 1395 0
 570 01a2 0133     		adds	r3, r3, #1
 571 01a4 1D70     		strb	r5, [r3]
1396:.\Generated_Source\PSoC5/BPM_ADC.c ****             BPM_ADC_DEC_OCOR_REG    = BPM_ADC_CFG3_DEC_OCOR;
 572              		.loc 1 1396 0
 573 01a6 3F22     		movs	r2, #63
 574 01a8 0133     		adds	r3, r3, #1
 575 01aa 1A70     		strb	r2, [r3]
1397:.\Generated_Source\PSoC5/BPM_ADC.c ****             BPM_ADC_DEC_OCORM_REG   = BPM_ADC_CFG3_DEC_OCORM;
 576              		.loc 1 1397 0
ARM GAS  C:\Users\student\AppData\Local\Temp\ccHj2j2l.s 			page 43


 577 01ac 0233     		adds	r3, r3, #2
 578 01ae 1D70     		strb	r5, [r3]
1398:.\Generated_Source\PSoC5/BPM_ADC.c ****             BPM_ADC_DEC_OCORH_REG   = BPM_ADC_CFG3_DEC_OCORH;
 579              		.loc 1 1398 0
 580 01b0 0133     		adds	r3, r3, #1
 581 01b2 1D70     		strb	r5, [r3]
1399:.\Generated_Source\PSoC5/BPM_ADC.c ****             BPM_ADC_DEC_COHER_REG   = BPM_ADC_CFG3_DEC_COHER;
 582              		.loc 1 1399 0
 583 01b4 0133     		adds	r3, r3, #1
 584 01b6 1D70     		strb	r5, [r3]
1400:.\Generated_Source\PSoC5/BPM_ADC.c **** 
 585              		.loc 1 1400 0
 586 01b8 0126     		movs	r6, #1
 587 01ba 0A33     		adds	r3, r3, #10
 588 01bc 1E70     		strb	r6, [r3]
1402:.\Generated_Source\PSoC5/BPM_ADC.c ****             BPM_ADC_DSM_CR5_REG     = BPM_ADC_CFG3_DSM_CR5;
 589              		.loc 1 1402 0
 590 01be 5022     		movs	r2, #80
 591 01c0 03F52763 		add	r3, r3, #2672
 592 01c4 1A70     		strb	r2, [r3]
1403:.\Generated_Source\PSoC5/BPM_ADC.c ****             BPM_ADC_DSM_CR6_REG     = BPM_ADC_CFG3_DSM_CR6;
 593              		.loc 1 1403 0
 594 01c6 2722     		movs	r2, #39
 595 01c8 0133     		adds	r3, r3, #1
 596 01ca 1A70     		strb	r2, [r3]
1404:.\Generated_Source\PSoC5/BPM_ADC.c ****             BPM_ADC_DSM_CR7_REG     = BPM_ADC_CFG3_DSM_CR7;
 597              		.loc 1 1404 0
 598 01cc 2C22     		movs	r2, #44
 599 01ce 0133     		adds	r3, r3, #1
 600 01d0 1A70     		strb	r2, [r3]
1405:.\Generated_Source\PSoC5/BPM_ADC.c ****             BPM_ADC_DSM_CR10_REG    = BPM_ADC_CFG3_DSM_CR10;
 601              		.loc 1 1405 0
 602 01d2 0133     		adds	r3, r3, #1
 603 01d4 1D70     		strb	r5, [r3]
1406:.\Generated_Source\PSoC5/BPM_ADC.c ****             BPM_ADC_DSM_CR11_REG    = BPM_ADC_CFG3_DSM_CR11;
 604              		.loc 1 1406 0
 605 01d6 5522     		movs	r2, #85
 606 01d8 0333     		adds	r3, r3, #3
 607 01da 1A70     		strb	r2, [r3]
1407:.\Generated_Source\PSoC5/BPM_ADC.c ****             BPM_ADC_DSM_CR12_REG    = BPM_ADC_CFG3_DSM_CR12;
 608              		.loc 1 1407 0
 609 01dc 5A22     		movs	r2, #90
 610 01de 0133     		adds	r3, r3, #1
 611 01e0 1A70     		strb	r2, [r3]
1408:.\Generated_Source\PSoC5/BPM_ADC.c ****             BPM_ADC_DSM_CR14_REG    = BPM_ADC_CFG3_DSM_CR14;
 612              		.loc 1 1408 0
 613 01e2 0527     		movs	r7, #5
 614 01e4 0133     		adds	r3, r3, #1
 615 01e6 1F70     		strb	r7, [r3]
1409:.\Generated_Source\PSoC5/BPM_ADC.c ****             BPM_ADC_DSM_CR15_REG    = BPM_ADC_CFG3_DSM_CR15;
 616              		.loc 1 1409 0
 617 01e8 0233     		adds	r3, r3, #2
 618 01ea 1E70     		strb	r6, [r3]
1410:.\Generated_Source\PSoC5/BPM_ADC.c ****             BPM_ADC_DSM_CR16_REG    = BPM_ADC_CFG3_DSM_CR16;
 619              		.loc 1 1410 0
 620 01ec 1122     		movs	r2, #17
 621 01ee 0133     		adds	r3, r3, #1
ARM GAS  C:\Users\student\AppData\Local\Temp\ccHj2j2l.s 			page 44


 622 01f0 1A70     		strb	r2, [r3]
1411:.\Generated_Source\PSoC5/BPM_ADC.c ****             BPM_ADC_DSM_CR17_REG    = BPM_ADC_CFG3_DSM_CR17;
 623              		.loc 1 1411 0
 624 01f2 1922     		movs	r2, #25
 625 01f4 0133     		adds	r3, r3, #1
 626 01f6 1A70     		strb	r2, [r3]
1412:.\Generated_Source\PSoC5/BPM_ADC.c ****             /* Set DSM_REF0_REG by disabling and enabling the PRESS circuit */
 627              		.loc 1 1412 0
 628 01f8 9722     		movs	r2, #151
 629 01fa 0133     		adds	r3, r3, #1
 630 01fc 1A70     		strb	r2, [r3]
1414:.\Generated_Source\PSoC5/BPM_ADC.c ****             BPM_ADC_DSM_REF2_REG    = BPM_ADC_CFG3_DSM_REF2;
 631              		.loc 1 1414 0
 632 01fe 4420     		movs	r0, #68
 633 0200 FFF7FEFF 		bl	BPM_ADC_SetDSMRef0Reg
 634              	.LVL51:
1415:.\Generated_Source\PSoC5/BPM_ADC.c ****             BPM_ADC_DSM_REF3_REG    = BPM_ADC_CFG3_DSM_REF3;
 635              		.loc 1 1415 0
 636 0204 5822     		movs	r2, #88
 637 0206 424B     		ldr	r3, .L30+8
 638 0208 1A70     		strb	r2, [r3]
1416:.\Generated_Source\PSoC5/BPM_ADC.c **** 
 639              		.loc 1 1416 0
 640 020a 0133     		adds	r3, r3, #1
 641 020c 1D70     		strb	r5, [r3]
1418:.\Generated_Source\PSoC5/BPM_ADC.c ****             BPM_ADC_DSM_BUF1_REG    = BPM_ADC_CFG3_DSM_BUF1;
 642              		.loc 1 1418 0
 643 020e 0533     		adds	r3, r3, #5
 644 0210 1F70     		strb	r7, [r3]
1419:.\Generated_Source\PSoC5/BPM_ADC.c ****             BPM_ADC_DSM_BUF2_REG    = BPM_ADC_CFG3_DSM_BUF2;
 645              		.loc 1 1419 0
 646 0212 0222     		movs	r2, #2
 647 0214 0133     		adds	r3, r3, #1
 648 0216 1A70     		strb	r2, [r3]
1420:.\Generated_Source\PSoC5/BPM_ADC.c ****             BPM_ADC_DSM_BUF3_REG    = BPM_ADC_CFG3_DSM_BUF3;
 649              		.loc 1 1420 0
 650 0218 0133     		adds	r3, r3, #1
 651 021a 1D70     		strb	r5, [r3]
1421:.\Generated_Source\PSoC5/BPM_ADC.c **** 
 652              		.loc 1 1421 0
 653 021c 0133     		adds	r3, r3, #1
 654 021e 1D70     		strb	r5, [r3]
1430:.\Generated_Source\PSoC5/BPM_ADC.c ****                 #endif /* BPM_ADC_IR_VSSA_TO_2VREF) */
 655              		.loc 1 1430 0
 656 0220 2846     		mov	r0, r5
 657 0222 FFF7FEFF 		bl	BPM_ADC_AMux_Select
 658              	.LVL52:
1441:.\Generated_Source\PSoC5/BPM_ADC.c **** 
 659              		.loc 1 1441 0
 660 0226 4FF47A42 		mov	r2, #64000
 661 022a 3A4B     		ldr	r3, .L30+12
 662 022c 1A60     		str	r2, [r3]
1443:.\Generated_Source\PSoC5/BPM_ADC.c **** 
 663              		.loc 1 1443 0
 664 022e 0820     		movs	r0, #8
 665 0230 3146     		mov	r1, r6
 666 0232 FFF7FEFF 		bl	BPM_ADC_Ext_CP_Clk_SetDividerRegister
ARM GAS  C:\Users\student\AppData\Local\Temp\ccHj2j2l.s 			page 45


 667              	.LVL53:
1447:.\Generated_Source\PSoC5/BPM_ADC.c ****             #endif /* BPM_ADC_DEFAULT_INTERNAL_CLK */
 668              		.loc 1 1447 0
 669 0236 2520     		movs	r0, #37
 670 0238 3146     		mov	r1, r6
 671 023a FFF7FEFF 		bl	BPM_ADC_theACLK_SetDividerRegister
 672              	.LVL54:
1452:.\Generated_Source\PSoC5/BPM_ADC.c ****             #endif   /* End BPM_ADC_IRQ_REMOVE */
 673              		.loc 1 1452 0
 674 023e 1D20     		movs	r0, #29
 675 0240 3749     		ldr	r1, .L30+24
 676 0242 FFF7FEFF 		bl	CyIntSetVector
 677              	.LVL55:
 678              	.L27:
1458:.\Generated_Source\PSoC5/BPM_ADC.c ****         {
 679              		.loc 1 1458 0
 680 0246 042C     		cmp	r4, #4
 681 0248 5DD1     		bne	.L24
1461:.\Generated_Source\PSoC5/BPM_ADC.c ****             BPM_ADC_DEC_SHIFT1_REG  = BPM_ADC_CFG4_DEC_SHIFT1;
 682              		.loc 1 1461 0
 683 024a 3822     		movs	r2, #56
 684 024c 2F4B     		ldr	r3, .L30+4
 685 024e 1A70     		strb	r2, [r3]
1462:.\Generated_Source\PSoC5/BPM_ADC.c ****             BPM_ADC_DEC_SHIFT2_REG  = BPM_ADC_CFG4_DEC_SHIFT2;
 686              		.loc 1 1462 0
 687 0250 0422     		movs	r2, #4
 688 0252 0233     		adds	r3, r3, #2
 689 0254 1A70     		strb	r2, [r3]
1463:.\Generated_Source\PSoC5/BPM_ADC.c ****             BPM_ADC_DEC_DR2_REG     = BPM_ADC_CFG4_DEC_DR2;
 690              		.loc 1 1463 0
 691 0256 0622     		movs	r2, #6
 692 0258 0133     		adds	r3, r3, #1
 693 025a 1A70     		strb	r2, [r3]
1464:.\Generated_Source\PSoC5/BPM_ADC.c ****             BPM_ADC_DEC_DR2H_REG    = BPM_ADC_CFG4_DEC_DR2H;
 694              		.loc 1 1464 0
 695 025c 0024     		movs	r4, #0
 696 025e 0133     		adds	r3, r3, #1
 697 0260 1C70     		strb	r4, [r3]
1465:.\Generated_Source\PSoC5/BPM_ADC.c ****             BPM_ADC_DEC_DR1_REG     = BPM_ADC_CFG4_DEC_DR1;
 698              		.loc 1 1465 0
 699 0262 0133     		adds	r3, r3, #1
 700 0264 1C70     		strb	r4, [r3]
1466:.\Generated_Source\PSoC5/BPM_ADC.c ****             BPM_ADC_DEC_OCOR_REG    = BPM_ADC_CFG4_DEC_OCOR;
 701              		.loc 1 1466 0
 702 0266 3F22     		movs	r2, #63
 703 0268 0133     		adds	r3, r3, #1
 704 026a 1A70     		strb	r2, [r3]
1467:.\Generated_Source\PSoC5/BPM_ADC.c ****             BPM_ADC_DEC_OCORM_REG   = BPM_ADC_CFG4_DEC_OCORM;
 705              		.loc 1 1467 0
 706 026c 0233     		adds	r3, r3, #2
 707 026e 1C70     		strb	r4, [r3]
1468:.\Generated_Source\PSoC5/BPM_ADC.c ****             BPM_ADC_DEC_OCORH_REG   = BPM_ADC_CFG4_DEC_OCORH;
 708              		.loc 1 1468 0
 709 0270 0133     		adds	r3, r3, #1
 710 0272 1C70     		strb	r4, [r3]
1469:.\Generated_Source\PSoC5/BPM_ADC.c ****             BPM_ADC_DEC_COHER_REG   = BPM_ADC_CFG4_DEC_COHER;
 711              		.loc 1 1469 0
ARM GAS  C:\Users\student\AppData\Local\Temp\ccHj2j2l.s 			page 46


 712 0274 0133     		adds	r3, r3, #1
 713 0276 1C70     		strb	r4, [r3]
1470:.\Generated_Source\PSoC5/BPM_ADC.c **** 
 714              		.loc 1 1470 0
 715 0278 0125     		movs	r5, #1
 716 027a 0A33     		adds	r3, r3, #10
 717 027c 1D70     		strb	r5, [r3]
1472:.\Generated_Source\PSoC5/BPM_ADC.c ****             BPM_ADC_DSM_CR5_REG     = BPM_ADC_CFG4_DSM_CR5;
 718              		.loc 1 1472 0
 719 027e 5022     		movs	r2, #80
 720 0280 03F52763 		add	r3, r3, #2672
 721 0284 1A70     		strb	r2, [r3]
1473:.\Generated_Source\PSoC5/BPM_ADC.c ****             BPM_ADC_DSM_CR6_REG     = BPM_ADC_CFG4_DSM_CR6;
 722              		.loc 1 1473 0
 723 0286 2722     		movs	r2, #39
 724 0288 0133     		adds	r3, r3, #1
 725 028a 1A70     		strb	r2, [r3]
1474:.\Generated_Source\PSoC5/BPM_ADC.c ****             BPM_ADC_DSM_CR7_REG     = BPM_ADC_CFG4_DSM_CR7;
 726              		.loc 1 1474 0
 727 028c 2C22     		movs	r2, #44
 728 028e 0133     		adds	r3, r3, #1
 729 0290 1A70     		strb	r2, [r3]
1475:.\Generated_Source\PSoC5/BPM_ADC.c ****             BPM_ADC_DSM_CR10_REG    = BPM_ADC_CFG4_DSM_CR10;
 730              		.loc 1 1475 0
 731 0292 0133     		adds	r3, r3, #1
 732 0294 1C70     		strb	r4, [r3]
1476:.\Generated_Source\PSoC5/BPM_ADC.c ****             BPM_ADC_DSM_CR11_REG    = BPM_ADC_CFG4_DSM_CR11;
 733              		.loc 1 1476 0
 734 0296 5522     		movs	r2, #85
 735 0298 0333     		adds	r3, r3, #3
 736 029a 1A70     		strb	r2, [r3]
1477:.\Generated_Source\PSoC5/BPM_ADC.c ****             BPM_ADC_DSM_CR12_REG    = BPM_ADC_CFG4_DSM_CR12;
 737              		.loc 1 1477 0
 738 029c 5A22     		movs	r2, #90
 739 029e 0133     		adds	r3, r3, #1
 740 02a0 1A70     		strb	r2, [r3]
1478:.\Generated_Source\PSoC5/BPM_ADC.c ****             BPM_ADC_DSM_CR14_REG    = BPM_ADC_CFG4_DSM_CR14;
 741              		.loc 1 1478 0
 742 02a2 0526     		movs	r6, #5
 743 02a4 0133     		adds	r3, r3, #1
 744 02a6 1E70     		strb	r6, [r3]
1479:.\Generated_Source\PSoC5/BPM_ADC.c ****             BPM_ADC_DSM_CR15_REG    = BPM_ADC_CFG4_DSM_CR15;
 745              		.loc 1 1479 0
 746 02a8 0233     		adds	r3, r3, #2
 747 02aa 1D70     		strb	r5, [r3]
1480:.\Generated_Source\PSoC5/BPM_ADC.c ****             BPM_ADC_DSM_CR16_REG    = BPM_ADC_CFG4_DSM_CR16;
 748              		.loc 1 1480 0
 749 02ac 1122     		movs	r2, #17
 750 02ae 0133     		adds	r3, r3, #1
 751 02b0 1A70     		strb	r2, [r3]
1481:.\Generated_Source\PSoC5/BPM_ADC.c ****             BPM_ADC_DSM_CR17_REG    = BPM_ADC_CFG4_DSM_CR17;
 752              		.loc 1 1481 0
 753 02b2 1922     		movs	r2, #25
 754 02b4 0133     		adds	r3, r3, #1
 755 02b6 1A70     		strb	r2, [r3]
1482:.\Generated_Source\PSoC5/BPM_ADC.c ****             /* Set DSM_REF0_REG by disabling and enabling the PRESS circuit */
 756              		.loc 1 1482 0
ARM GAS  C:\Users\student\AppData\Local\Temp\ccHj2j2l.s 			page 47


 757 02b8 9722     		movs	r2, #151
 758 02ba 0133     		adds	r3, r3, #1
 759 02bc 1A70     		strb	r2, [r3]
1484:.\Generated_Source\PSoC5/BPM_ADC.c ****             BPM_ADC_DSM_REF2_REG    = BPM_ADC_CFG4_DSM_REF2;
 760              		.loc 1 1484 0
 761 02be 4420     		movs	r0, #68
 762 02c0 FFF7FEFF 		bl	BPM_ADC_SetDSMRef0Reg
 763              	.LVL56:
1485:.\Generated_Source\PSoC5/BPM_ADC.c ****             BPM_ADC_DSM_REF3_REG    = BPM_ADC_CFG4_DSM_REF3;
 764              		.loc 1 1485 0
 765 02c4 5822     		movs	r2, #88
 766 02c6 124B     		ldr	r3, .L30+8
 767 02c8 1A70     		strb	r2, [r3]
1486:.\Generated_Source\PSoC5/BPM_ADC.c **** 
 768              		.loc 1 1486 0
 769 02ca 0133     		adds	r3, r3, #1
 770 02cc 1C70     		strb	r4, [r3]
1488:.\Generated_Source\PSoC5/BPM_ADC.c ****             BPM_ADC_DSM_BUF1_REG    = BPM_ADC_CFG4_DSM_BUF1;
 771              		.loc 1 1488 0
 772 02ce 0533     		adds	r3, r3, #5
 773 02d0 1E70     		strb	r6, [r3]
1489:.\Generated_Source\PSoC5/BPM_ADC.c ****             BPM_ADC_DSM_BUF2_REG    = BPM_ADC_CFG4_DSM_BUF2;
 774              		.loc 1 1489 0
 775 02d2 0222     		movs	r2, #2
 776 02d4 0133     		adds	r3, r3, #1
 777 02d6 1A70     		strb	r2, [r3]
1490:.\Generated_Source\PSoC5/BPM_ADC.c ****             BPM_ADC_DSM_BUF3_REG    = BPM_ADC_CFG4_DSM_BUF3;
 778              		.loc 1 1490 0
 779 02d8 0133     		adds	r3, r3, #1
 780 02da 1C70     		strb	r4, [r3]
1491:.\Generated_Source\PSoC5/BPM_ADC.c **** 
 781              		.loc 1 1491 0
 782 02dc 0133     		adds	r3, r3, #1
 783 02de 1C70     		strb	r4, [r3]
1500:.\Generated_Source\PSoC5/BPM_ADC.c ****                 #endif /* BPM_ADC_IR_VSSA_TO_2VREF) */
 784              		.loc 1 1500 0
 785 02e0 2046     		mov	r0, r4
 786 02e2 FFF7FEFF 		bl	BPM_ADC_AMux_Select
 787              	.LVL57:
1511:.\Generated_Source\PSoC5/BPM_ADC.c **** 
 788              		.loc 1 1511 0
 789 02e6 4FF47A42 		mov	r2, #64000
 790 02ea 0A4B     		ldr	r3, .L30+12
 791 02ec 1A60     		str	r2, [r3]
1513:.\Generated_Source\PSoC5/BPM_ADC.c **** 
 792              		.loc 1 1513 0
 793 02ee 0820     		movs	r0, #8
 794 02f0 2946     		mov	r1, r5
 795 02f2 FFF7FEFF 		bl	BPM_ADC_Ext_CP_Clk_SetDividerRegister
 796              	.LVL58:
1517:.\Generated_Source\PSoC5/BPM_ADC.c ****             #endif /* BPM_ADC_DEFAULT_INTERNAL_CLK */
 797              		.loc 1 1517 0
 798 02f6 2520     		movs	r0, #37
 799 02f8 2946     		mov	r1, r5
 800 02fa FFF7FEFF 		bl	BPM_ADC_theACLK_SetDividerRegister
 801              	.LVL59:
1522:.\Generated_Source\PSoC5/BPM_ADC.c ****             #endif   /* End BPM_ADC_IRQ_REMOVE */
ARM GAS  C:\Users\student\AppData\Local\Temp\ccHj2j2l.s 			page 48


 802              		.loc 1 1522 0
 803 02fe 1D20     		movs	r0, #29
 804 0300 0849     		ldr	r1, .L30+28
 805 0302 FFF7FEFF 		bl	CyIntSetVector
 806              	.LVL60:
 807              	.L24:
 808 0306 F8BD     		pop	{r3, r4, r5, r6, r7, pc}
 809              	.L31:
 810              		.align	2
 811              	.L30:
 812 0308 00000000 		.word	.LANCHOR0
 813 030c 004E0040 		.word	1073761792
 814 0310 94580040 		.word	1073764500
 815 0314 00000000 		.word	BPM_ADC_CountsPerVolt
 816 0318 00000000 		.word	BPM_ADC_ISR1
 817 031c 00000000 		.word	BPM_ADC_ISR2
 818 0320 00000000 		.word	BPM_ADC_ISR3
 819 0324 00000000 		.word	BPM_ADC_ISR4
 820              		.cfi_endproc
 821              	.LFE19:
 822              		.size	BPM_ADC_InitConfig, .-BPM_ADC_InitConfig
 823              		.section	.text.BPM_ADC_Init,"ax",%progbits
 824              		.align	2
 825              		.global	BPM_ADC_Init
 826              		.thumb
 827              		.thumb_func
 828              		.type	BPM_ADC_Init, %function
 829              	BPM_ADC_Init:
 830              	.LFB0:
  92:.\Generated_Source\PSoC5/BPM_ADC.c **** 
 831              		.loc 1 92 0
 832              		.cfi_startproc
 833              		@ args = 0, pretend = 0, frame = 0
 834              		@ frame_needed = 0, uses_anonymous_args = 0
 835 0000 2DE9F041 		push	{r4, r5, r6, r7, r8, lr}
 836              		.cfi_def_cfa_offset 24
 837              		.cfi_offset 4, -24
 838              		.cfi_offset 5, -20
 839              		.cfi_offset 6, -16
 840              		.cfi_offset 7, -12
 841              		.cfi_offset 8, -8
 842              		.cfi_offset 14, -4
 843 0004 82B0     		sub	sp, sp, #8
 844              		.cfi_def_cfa_offset 32
  94:.\Generated_Source\PSoC5/BPM_ADC.c ****     BPM_ADC_convDone = 0u;
 845              		.loc 1 94 0
 846 0006 394D     		ldr	r5, .L34
 847 0008 4FF00108 		mov	r8, #1
 848 000c 85F80080 		strb	r8, [r5]
  95:.\Generated_Source\PSoC5/BPM_ADC.c **** 
 849              		.loc 1 95 0
 850 0010 374E     		ldr	r6, .L34+4
 851 0012 0024     		movs	r4, #0
 852 0014 7474     		strb	r4, [r6, #17]
  97:.\Generated_Source\PSoC5/BPM_ADC.c **** 
 853              		.loc 1 97 0
 854 0016 1020     		movs	r0, #16
ARM GAS  C:\Users\student\AppData\Local\Temp\ccHj2j2l.s 			page 49


 855 0018 FFF7FEFF 		bl	BPM_ADC_Ext_CP_Clk_SetModeRegister
 856              	.LVL61:
 101:.\Generated_Source\PSoC5/BPM_ADC.c ****     #endif /* BPM_ADC_DEFAULT_INTERNAL_CLK */
 857              		.loc 1 101 0
 858 001c 1020     		movs	r0, #16
 859 001e FFF7FEFF 		bl	BPM_ADC_theACLK_SetModeRegister
 860              	.LVL62:
 106:.\Generated_Source\PSoC5/BPM_ADC.c ****     #endif   /* End BPM_ADC_IRQ_REMOVE */
 861              		.loc 1 106 0
 862 0022 1D20     		movs	r0, #29
 863 0024 0721     		movs	r1, #7
 864 0026 FFF7FEFF 		bl	CyIntSetPriority
 865              	.LVL63:
 110:.\Generated_Source\PSoC5/BPM_ADC.c ****     BPM_ADC_DSM_DEM1_REG    = BPM_ADC_CFG1_DSM_DEM1;
 866              		.loc 1 110 0
 867 002a 0427     		movs	r7, #4
 868 002c 314B     		ldr	r3, .L34+8
 869 002e 1F70     		strb	r7, [r3]
 111:.\Generated_Source\PSoC5/BPM_ADC.c ****     BPM_ADC_DSM_MISC_REG    = BPM_ADC_CFG1_DSM_MISC;
 870              		.loc 1 111 0
 871 0030 0133     		adds	r3, r3, #1
 872 0032 1C70     		strb	r4, [r3]
 112:.\Generated_Source\PSoC5/BPM_ADC.c ****     BPM_ADC_DSM_CLK_REG    |= BPM_ADC_CFG1_DSM_CLK;
 873              		.loc 1 112 0
 874 0034 0733     		adds	r3, r3, #7
 875 0036 1C70     		strb	r4, [r3]
 113:.\Generated_Source\PSoC5/BPM_ADC.c ****     BPM_ADC_DSM_REF1_REG    = BPM_ADC_CFG1_DSM_REF1;
 876              		.loc 1 113 0
 877 0038 2F4A     		ldr	r2, .L34+12
 878 003a 1378     		ldrb	r3, [r2]	@ zero_extendqisi2
 879 003c 43F01803 		orr	r3, r3, #24
 880 0040 1370     		strb	r3, [r2]
 114:.\Generated_Source\PSoC5/BPM_ADC.c **** 
 881              		.loc 1 114 0
 882 0042 2E4B     		ldr	r3, .L34+16
 883 0044 1C70     		strb	r4, [r3]
 116:.\Generated_Source\PSoC5/BPM_ADC.c ****     BPM_ADC_DSM_OUT1_REG    = BPM_ADC_CFG1_DSM_OUT1;
 884              		.loc 1 116 0
 885 0046 03F2F523 		addw	r3, r3, #757
 886 004a 1C70     		strb	r4, [r3]
 117:.\Generated_Source\PSoC5/BPM_ADC.c **** 
 887              		.loc 1 117 0
 888 004c 0133     		adds	r3, r3, #1
 889 004e 1C70     		strb	r4, [r3]
 119:.\Generated_Source\PSoC5/BPM_ADC.c ****     BPM_ADC_DSM_CR1_REG     = BPM_ADC_CFG1_DSM_CR1;
 890              		.loc 1 119 0
 891 0050 0A22     		movs	r2, #10
 892 0052 A3F20933 		subw	r3, r3, #777
 893 0056 1A70     		strb	r2, [r3]
 120:.\Generated_Source\PSoC5/BPM_ADC.c **** #if(BPM_ADC_MI_ENABLE != 0u) /* Enable Modulator Input */
 894              		.loc 1 120 0
 895 0058 0133     		adds	r3, r3, #1
 896 005a 1C70     		strb	r4, [r3]
 124:.\Generated_Source\PSoC5/BPM_ADC.c **** #endif /* BPM_ADC_MI_ENABLE != 0u*/    
 897              		.loc 1 124 0
 898 005c 0233     		adds	r3, r3, #2
 899 005e 1C70     		strb	r4, [r3]
ARM GAS  C:\Users\student\AppData\Local\Temp\ccHj2j2l.s 			page 50


 126:.\Generated_Source\PSoC5/BPM_ADC.c ****     BPM_ADC_DSM_CR9_REG     = BPM_ADC_CFG1_DSM_CR9;
 900              		.loc 1 126 0
 901 0060 1222     		movs	r2, #18
 902 0062 0533     		adds	r3, r3, #5
 903 0064 1A70     		strb	r2, [r3]
 127:.\Generated_Source\PSoC5/BPM_ADC.c ****     BPM_ADC_DSM_CR13_REG    = BPM_ADC_CFG1_DSM_CR13;
 904              		.loc 1 127 0
 905 0066 1322     		movs	r2, #19
 906 0068 0133     		adds	r3, r3, #1
 907 006a 1A70     		strb	r2, [r3]
 128:.\Generated_Source\PSoC5/BPM_ADC.c **** 
 908              		.loc 1 128 0
 909 006c 0433     		adds	r3, r3, #4
 910 006e 1C70     		strb	r4, [r3]
 130:.\Generated_Source\PSoC5/BPM_ADC.c **** 
 911              		.loc 1 130 0
 912 0070 1422     		movs	r2, #20
 913 0072 A3F68C23 		subw	r3, r3, #2700
 914 0076 1A70     		strb	r2, [r3]
 133:.\Generated_Source\PSoC5/BPM_ADC.c ****                                       BPM_ADC_CFG1_IDEAL_DEC_GAIN,
 915              		.loc 1 133 0
 916 0078 CDF80080 		str	r8, [sp]
 917 007c 0220     		movs	r0, #2
 918 007e 48F66B51 		movw	r1, #36203
 919 0082 4FF40042 		mov	r2, #32768
 920 0086 0C23     		movs	r3, #12
 921 0088 FFF7FEFF 		bl	BPM_ADC_GainCompensation
 922              	.LVL64:
 139:.\Generated_Source\PSoC5/BPM_ADC.c ****                                           BPM_ADC_CFG2_IDEAL_DEC_GAIN,
 923              		.loc 1 139 0
 924 008c 0223     		movs	r3, #2
 925 008e 0093     		str	r3, [sp]
 926 0090 2046     		mov	r0, r4
 927 0092 49F2DA01 		movw	r1, #37082
 928 0096 4FF40042 		mov	r2, #32768
 929 009a 1023     		movs	r3, #16
 930 009c FFF7FEFF 		bl	BPM_ADC_GainCompensation
 931              	.LVL65:
 146:.\Generated_Source\PSoC5/BPM_ADC.c ****                                           BPM_ADC_CFG3_IDEAL_DEC_GAIN,
 932              		.loc 1 146 0
 933 00a0 0323     		movs	r3, #3
 934 00a2 0093     		str	r3, [sp]
 935 00a4 2046     		mov	r0, r4
 936 00a6 49F2DA01 		movw	r1, #37082
 937 00aa 4FF40042 		mov	r2, #32768
 938 00ae 1023     		movs	r3, #16
 939 00b0 FFF7FEFF 		bl	BPM_ADC_GainCompensation
 940              	.LVL66:
 153:.\Generated_Source\PSoC5/BPM_ADC.c ****                                           BPM_ADC_CFG4_IDEAL_DEC_GAIN,
 941              		.loc 1 153 0
 942 00b4 0097     		str	r7, [sp]
 943 00b6 2046     		mov	r0, r4
 944 00b8 49F2DA01 		movw	r1, #37082
 945 00bc 4FF40042 		mov	r2, #32768
 946 00c0 1023     		movs	r3, #16
 947 00c2 FFF7FEFF 		bl	BPM_ADC_GainCompensation
 948              	.LVL67:
ARM GAS  C:\Users\student\AppData\Local\Temp\ccHj2j2l.s 			page 51


 161:.\Generated_Source\PSoC5/BPM_ADC.c ****     CY_SET_REG16(BPM_ADC_DEC_GCOR_16B_PTR, BPM_ADC_gcor[BPM_ADC_Config - 1u].gcor);
 949              		.loc 1 161 0
 950 00c6 2B78     		ldrb	r3, [r5]	@ zero_extendqisi2
 951 00c8 06EB8303 		add	r3, r6, r3, lsl #2
 952 00cc 13F8022C 		ldrb	r2, [r3, #-2]	@ zero_extendqisi2
 953 00d0 0B4B     		ldr	r3, .L34+20
 954 00d2 1A70     		strb	r2, [r3]
 162:.\Generated_Source\PSoC5/BPM_ADC.c **** 
 955              		.loc 1 162 0
 956 00d4 2B78     		ldrb	r3, [r5]	@ zero_extendqisi2
 957 00d6 013B     		subs	r3, r3, #1
 958 00d8 36F82320 		ldrh	r2, [r6, r3, lsl #2]
 959 00dc 094B     		ldr	r3, .L34+24
 960 00de 1A80     		strh	r2, [r3]	@ movhi
 165:.\Generated_Source\PSoC5/BPM_ADC.c **** }
 961              		.loc 1 165 0
 962 00e0 2878     		ldrb	r0, [r5]	@ zero_extendqisi2
 963 00e2 FFF7FEFF 		bl	BPM_ADC_InitConfig
 964              	.LVL68:
 166:.\Generated_Source\PSoC5/BPM_ADC.c **** 
 965              		.loc 1 166 0
 966 00e6 02B0     		add	sp, sp, #8
 967              		.cfi_def_cfa_offset 24
 968              		@ sp needed
 969 00e8 BDE8F081 		pop	{r4, r5, r6, r7, r8, pc}
 970              	.L35:
 971              		.align	2
 972              	.L34:
 973 00ec 00000000 		.word	.LANCHOR1
 974 00f0 00000000 		.word	.LANCHOR0
 975 00f4 96580040 		.word	1073764502
 976 00f8 075B0040 		.word	1073765127
 977 00fc 93580040 		.word	1073764499
 978 0100 0E4E0040 		.word	1073761806
 979 0104 0C4E0040 		.word	1073761804
 980              		.cfi_endproc
 981              	.LFE0:
 982              		.size	BPM_ADC_Init, .-BPM_ADC_Init
 983              		.section	.text.BPM_ADC_Enable,"ax",%progbits
 984              		.align	2
 985              		.global	BPM_ADC_Enable
 986              		.thumb
 987              		.thumb_func
 988              		.type	BPM_ADC_Enable, %function
 989              	BPM_ADC_Enable:
 990              	.LFB1:
 185:.\Generated_Source\PSoC5/BPM_ADC.c **** 	uint8 config;
 991              		.loc 1 185 0
 992              		.cfi_startproc
 993              		@ args = 0, pretend = 0, frame = 0
 994              		@ frame_needed = 0, uses_anonymous_args = 0
 995 0000 70B5     		push	{r4, r5, r6, lr}
 996              		.cfi_def_cfa_offset 16
 997              		.cfi_offset 4, -16
 998              		.cfi_offset 5, -12
 999              		.cfi_offset 6, -8
 1000              		.cfi_offset 14, -4
ARM GAS  C:\Users\student\AppData\Local\Temp\ccHj2j2l.s 			page 52


 188:.\Generated_Source\PSoC5/BPM_ADC.c **** 
 1001              		.loc 1 188 0
 1002 0002 FFF7FEFF 		bl	CyEnterCriticalSection
 1003              	.LVL69:
 1004 0006 0646     		mov	r6, r0
 1005              	.LVL70:
 191:.\Generated_Source\PSoC5/BPM_ADC.c ****     
 1006              		.loc 1 191 0
 1007 0008 2A4B     		ldr	r3, .L38
 1008 000a 1B78     		ldrb	r3, [r3]	@ zero_extendqisi2
 1009              	.LVL71:
 194:.\Generated_Source\PSoC5/BPM_ADC.c ****     BPM_ADC_PWRMGR_DSM_REG |= BPM_ADC_ACT_PWR_DSM_EN;
 1010              		.loc 1 194 0
 1011 000c 2A4B     		ldr	r3, .L38+4
 1012 000e 1A78     		ldrb	r2, [r3]	@ zero_extendqisi2
 1013 0010 42F00102 		orr	r2, r2, #1
 1014 0014 1A70     		strb	r2, [r3]
 195:.\Generated_Source\PSoC5/BPM_ADC.c **** 
 1015              		.loc 1 195 0
 1016 0016 1A78     		ldrb	r2, [r3]	@ zero_extendqisi2
 1017 0018 42F01002 		orr	r2, r2, #16
 1018 001c 1A70     		strb	r2, [r3]
 198:.\Generated_Source\PSoC5/BPM_ADC.c ****     BPM_ADC_STBY_PWRMGR_DSM_REG |= BPM_ADC_STBY_PWR_DSM_EN;
 1019              		.loc 1 198 0
 1020 001e 1033     		adds	r3, r3, #16
 1021 0020 1A78     		ldrb	r2, [r3]	@ zero_extendqisi2
 1022 0022 42F00102 		orr	r2, r2, #1
 1023 0026 1A70     		strb	r2, [r3]
 199:.\Generated_Source\PSoC5/BPM_ADC.c **** 
 1024              		.loc 1 199 0
 1025 0028 1A78     		ldrb	r2, [r3]	@ zero_extendqisi2
 1026 002a 42F01002 		orr	r2, r2, #16
 1027 002e 1A70     		strb	r2, [r3]
 202:.\Generated_Source\PSoC5/BPM_ADC.c ****     BPM_ADC_RESET_CR5_REG |= BPM_ADC_IGNORE_PRESA2;
 1028              		.loc 1 202 0
 1029 0030 224D     		ldr	r5, .L38+8
 1030 0032 2B78     		ldrb	r3, [r5]	@ zero_extendqisi2
 1031 0034 43F00203 		orr	r3, r3, #2
 1032 0038 2B70     		strb	r3, [r5]
 203:.\Generated_Source\PSoC5/BPM_ADC.c **** 
 1033              		.loc 1 203 0
 1034 003a 214C     		ldr	r4, .L38+12
 1035 003c 2378     		ldrb	r3, [r4]	@ zero_extendqisi2
 1036 003e 43F00203 		orr	r3, r3, #2
 1037 0042 2370     		strb	r3, [r4]
 205:.\Generated_Source\PSoC5/BPM_ADC.c **** 
 1038              		.loc 1 205 0
 1039 0044 1F4A     		ldr	r2, .L38+16
 1040 0046 1378     		ldrb	r3, [r2]	@ zero_extendqisi2
 1041 0048 43F00303 		orr	r3, r3, #3
 1042 004c 1370     		strb	r3, [r2]
 271:.\Generated_Source\PSoC5/BPM_ADC.c **** 
 1043              		.loc 1 271 0
 1044 004e 0320     		movs	r0, #3
 1045 0050 FFF7FEFF 		bl	CyDelayUs
 1046              	.LVL72:
 274:.\Generated_Source\PSoC5/BPM_ADC.c ****     BPM_ADC_RESET_CR5_REG &= (uint8)~BPM_ADC_IGNORE_PRESA2;
ARM GAS  C:\Users\student\AppData\Local\Temp\ccHj2j2l.s 			page 53


 1047              		.loc 1 274 0
 1048 0054 2B78     		ldrb	r3, [r5]	@ zero_extendqisi2
 1049 0056 03F0FD03 		and	r3, r3, #253
 1050 005a 2B70     		strb	r3, [r5]
 275:.\Generated_Source\PSoC5/BPM_ADC.c **** 
 1051              		.loc 1 275 0
 1052 005c 2378     		ldrb	r3, [r4]	@ zero_extendqisi2
 1053 005e 03F0FD03 		and	r3, r3, #253
 1054 0062 2370     		strb	r3, [r4]
 278:.\Generated_Source\PSoC5/BPM_ADC.c **** 
 1055              		.loc 1 278 0
 1056 0064 184A     		ldr	r2, .L38+20
 1057 0066 1378     		ldrb	r3, [r2]	@ zero_extendqisi2
 1058 0068 43F00603 		orr	r3, r3, #6
 1059 006c 1370     		strb	r3, [r2]
 281:.\Generated_Source\PSoC5/BPM_ADC.c **** 
 1060              		.loc 1 281 0
 1061 006e 7A22     		movs	r2, #122
 1062 0070 164B     		ldr	r3, .L38+24
 1063 0072 1A70     		strb	r2, [r3]
 285:.\Generated_Source\PSoC5/BPM_ADC.c ****         BPM_ADC_STBY_PWRMGR_CLK_REG |= BPM_ADC_STBY_PWR_CLK_EN;
 1064              		.loc 1 285 0
 1065 0074 164A     		ldr	r2, .L38+28
 1066 0076 1378     		ldrb	r3, [r2]	@ zero_extendqisi2
 1067 0078 43F00103 		orr	r3, r3, #1
 1068 007c 1370     		strb	r3, [r2]
 286:.\Generated_Source\PSoC5/BPM_ADC.c ****     #endif /* BPM_ADC_DEFAULT_INTERNAL_CLK */
 1069              		.loc 1 286 0
 1070 007e 1032     		adds	r2, r2, #16
 1071 0080 1378     		ldrb	r3, [r2]	@ zero_extendqisi2
 1072 0082 43F00103 		orr	r3, r3, #1
 1073 0086 1370     		strb	r3, [r2]
 290:.\Generated_Source\PSoC5/BPM_ADC.c ****     BPM_ADC_STBY_PWRMGR_CHARGE_PUMP_CLK_REG |= BPM_ADC_STBY_PWR_CHARGE_PUMP_CLK_EN;
 1074              		.loc 1 290 0
 1075 0088 0F3A     		subs	r2, r2, #15
 1076 008a 1378     		ldrb	r3, [r2]	@ zero_extendqisi2
 1077 008c 43F00103 		orr	r3, r3, #1
 1078 0090 1370     		strb	r3, [r2]
 291:.\Generated_Source\PSoC5/BPM_ADC.c **** 
 1079              		.loc 1 291 0
 1080 0092 1032     		adds	r2, r2, #16
 1081 0094 1378     		ldrb	r3, [r2]	@ zero_extendqisi2
 1082 0096 43F00103 		orr	r3, r3, #1
 1083 009a 1370     		strb	r3, [r2]
 295:.\Generated_Source\PSoC5/BPM_ADC.c ****         /* Enable interrupt */
 1084              		.loc 1 295 0
 1085 009c 4FF00053 		mov	r3, #536870912
 1086 00a0 0C4A     		ldr	r2, .L38+32
 1087 00a2 1360     		str	r3, [r2]
 297:.\Generated_Source\PSoC5/BPM_ADC.c ****     #endif   /* End BPM_ADC_IRQ_REMOVE */
 1088              		.loc 1 297 0
 1089 00a4 A2F5C072 		sub	r2, r2, #384
 1090 00a8 1360     		str	r3, [r2]
 300:.\Generated_Source\PSoC5/BPM_ADC.c **** 
 1091              		.loc 1 300 0
 1092 00aa 3046     		mov	r0, r6
 1093 00ac FFF7FEFF 		bl	CyExitCriticalSection
ARM GAS  C:\Users\student\AppData\Local\Temp\ccHj2j2l.s 			page 54


 1094              	.LVL73:
 1095 00b0 70BD     		pop	{r4, r5, r6, pc}
 1096              	.LVL74:
 1097              	.L39:
 1098 00b2 00BF     		.align	2
 1099              	.L38:
 1100 00b4 00000000 		.word	.LANCHOR1
 1101 00b8 AA430040 		.word	1073759146
 1102 00bc F8460040 		.word	1073759992
 1103 00c0 F9460040 		.word	1073759993
 1104 00c4 91580040 		.word	1073764497
 1105 00c8 77580040 		.word	1073764471
 1106 00cc 82580040 		.word	1073764482
 1107 00d0 A1430040 		.word	1073759137
 1108 00d4 80E200E0 		.word	-536812928
 1109              		.cfi_endproc
 1110              	.LFE1:
 1111              		.size	BPM_ADC_Enable, .-BPM_ADC_Enable
 1112              		.section	.text.BPM_ADC_Start,"ax",%progbits
 1113              		.align	2
 1114              		.global	BPM_ADC_Start
 1115              		.thumb
 1116              		.thumb_func
 1117              		.type	BPM_ADC_Start, %function
 1118              	BPM_ADC_Start:
 1119              	.LFB2:
 330:.\Generated_Source\PSoC5/BPM_ADC.c ****     if(BPM_ADC_initVar == 0u)
 1120              		.loc 1 330 0
 1121              		.cfi_startproc
 1122              		@ args = 0, pretend = 0, frame = 0
 1123              		@ frame_needed = 0, uses_anonymous_args = 0
 1124 0000 08B5     		push	{r3, lr}
 1125              		.cfi_def_cfa_offset 8
 1126              		.cfi_offset 3, -8
 1127              		.cfi_offset 14, -4
 331:.\Generated_Source\PSoC5/BPM_ADC.c ****     {
 1128              		.loc 1 331 0
 1129 0002 084B     		ldr	r3, .L44
 1130 0004 9B7C     		ldrb	r3, [r3, #18]	@ zero_extendqisi2
 1131 0006 4BB9     		cbnz	r3, .L41
 333:.\Generated_Source\PSoC5/BPM_ADC.c ****         {
 1132              		.loc 1 333 0
 1133 0008 064B     		ldr	r3, .L44
 1134 000a DB7C     		ldrb	r3, [r3, #19]	@ zero_extendqisi2
 1135 000c 13F0FF0F 		tst	r3, #255
 1136 0010 01D1     		bne	.L42
 335:.\Generated_Source\PSoC5/BPM_ADC.c ****         }
 1137              		.loc 1 335 0
 1138 0012 FFF7FEFF 		bl	BPM_ADC_Init
 1139              	.LVL75:
 1140              	.L42:
 337:.\Generated_Source\PSoC5/BPM_ADC.c ****     }
 1141              		.loc 1 337 0
 1142 0016 0122     		movs	r2, #1
 1143 0018 024B     		ldr	r3, .L44
 1144 001a 9A74     		strb	r2, [r3, #18]
 1145              	.L41:
ARM GAS  C:\Users\student\AppData\Local\Temp\ccHj2j2l.s 			page 55


 341:.\Generated_Source\PSoC5/BPM_ADC.c **** }
 1146              		.loc 1 341 0
 1147 001c FFF7FEFF 		bl	BPM_ADC_Enable
 1148              	.LVL76:
 1149 0020 08BD     		pop	{r3, pc}
 1150              	.L45:
 1151 0022 00BF     		.align	2
 1152              	.L44:
 1153 0024 00000000 		.word	.LANCHOR0
 1154              		.cfi_endproc
 1155              	.LFE2:
 1156              		.size	BPM_ADC_Start, .-BPM_ADC_Start
 1157              		.section	.text.BPM_ADC_Stop,"ax",%progbits
 1158              		.align	2
 1159              		.global	BPM_ADC_Stop
 1160              		.thumb
 1161              		.thumb_func
 1162              		.type	BPM_ADC_Stop, %function
 1163              	BPM_ADC_Stop:
 1164              	.LFB3:
 363:.\Generated_Source\PSoC5/BPM_ADC.c ****     uint8 enableInterrupts;
 1165              		.loc 1 363 0
 1166              		.cfi_startproc
 1167              		@ args = 0, pretend = 0, frame = 0
 1168              		@ frame_needed = 0, uses_anonymous_args = 0
 1169 0000 70B5     		push	{r4, r5, r6, lr}
 1170              		.cfi_def_cfa_offset 16
 1171              		.cfi_offset 4, -16
 1172              		.cfi_offset 5, -12
 1173              		.cfi_offset 6, -8
 1174              		.cfi_offset 14, -4
 365:.\Generated_Source\PSoC5/BPM_ADC.c **** 
 1175              		.loc 1 365 0
 1176 0002 FFF7FEFF 		bl	CyEnterCriticalSection
 1177              	.LVL77:
 1178 0006 0646     		mov	r6, r0
 1179              	.LVL78:
 368:.\Generated_Source\PSoC5/BPM_ADC.c ****     BPM_ADC_DEC_SR_REG |=  BPM_ADC_DEC_INTR_CLEAR;
 1180              		.loc 1 368 0
 1181 0008 314A     		ldr	r2, .L48
 1182 000a 1378     		ldrb	r3, [r2]	@ zero_extendqisi2
 1183 000c 03F0FE03 		and	r3, r3, #254
 1184 0010 1370     		strb	r3, [r2]
 369:.\Generated_Source\PSoC5/BPM_ADC.c **** 
 1185              		.loc 1 369 0
 1186 0012 0132     		adds	r2, r2, #1
 1187 0014 1378     		ldrb	r3, [r2]	@ zero_extendqisi2
 1188 0016 43F00403 		orr	r3, r3, #4
 1189 001a 1370     		strb	r3, [r2]
 373:.\Generated_Source\PSoC5/BPM_ADC.c ****     BPM_ADC_RESET_CR5_REG |= BPM_ADC_IGNORE_PRESA2;
 1190              		.loc 1 373 0
 1191 001c 2D4D     		ldr	r5, .L48+4
 1192 001e 2B78     		ldrb	r3, [r5]	@ zero_extendqisi2
 1193 0020 43F00203 		orr	r3, r3, #2
 1194 0024 2B70     		strb	r3, [r5]
 374:.\Generated_Source\PSoC5/BPM_ADC.c **** 
 1195              		.loc 1 374 0
ARM GAS  C:\Users\student\AppData\Local\Temp\ccHj2j2l.s 			page 56


 1196 0026 2C4C     		ldr	r4, .L48+8
 1197 0028 2378     		ldrb	r3, [r4]	@ zero_extendqisi2
 1198 002a 43F00203 		orr	r3, r3, #2
 1199 002e 2370     		strb	r3, [r4]
 376:.\Generated_Source\PSoC5/BPM_ADC.c ****     BPM_ADC_DSM_REF0_REG &= (uint8)~BPM_ADC_DSM_EN_BUF_VREF_INN;
 1200              		.loc 1 376 0
 1201 0030 02F52962 		add	r2, r2, #2704
 1202 0034 1378     		ldrb	r3, [r2]	@ zero_extendqisi2
 1203 0036 03F0FC03 		and	r3, r3, #252
 1204 003a 1370     		strb	r3, [r2]
 377:.\Generated_Source\PSoC5/BPM_ADC.c **** 
 1205              		.loc 1 377 0
 1206 003c 0132     		adds	r2, r2, #1
 1207 003e 1378     		ldrb	r3, [r2]	@ zero_extendqisi2
 1208 0040 03F0F703 		and	r3, r3, #247
 1209 0044 1370     		strb	r3, [r2]
 380:.\Generated_Source\PSoC5/BPM_ADC.c **** 
 1210              		.loc 1 380 0
 1211 0046 0320     		movs	r0, #3
 1212 0048 FFF7FEFF 		bl	CyDelayUs
 1213              	.LVL79:
 383:.\Generated_Source\PSoC5/BPM_ADC.c ****     BPM_ADC_RESET_CR5_REG &= (uint8)~BPM_ADC_IGNORE_PRESA2;
 1214              		.loc 1 383 0
 1215 004c 2B78     		ldrb	r3, [r5]	@ zero_extendqisi2
 1216 004e 03F0FD03 		and	r3, r3, #253
 1217 0052 2B70     		strb	r3, [r5]
 384:.\Generated_Source\PSoC5/BPM_ADC.c **** 
 1218              		.loc 1 384 0
 1219 0054 2378     		ldrb	r3, [r4]	@ zero_extendqisi2
 1220 0056 03F0FD03 		and	r3, r3, #253
 1221 005a 2370     		strb	r3, [r4]
 387:.\Generated_Source\PSoC5/BPM_ADC.c **** 
 1222              		.loc 1 387 0
 1223 005c 1F4B     		ldr	r3, .L48+12
 1224 005e 1A78     		ldrb	r2, [r3]	@ zero_extendqisi2
 1225 0060 02F0EF02 		and	r2, r2, #239
 1226 0064 1A70     		strb	r2, [r3]
 390:.\Generated_Source\PSoC5/BPM_ADC.c **** 
 1227              		.loc 1 390 0
 1228 0066 1A78     		ldrb	r2, [r3]	@ zero_extendqisi2
 1229 0068 02F0FE02 		and	r2, r2, #254
 1230 006c 1A70     		strb	r2, [r3]
 393:.\Generated_Source\PSoC5/BPM_ADC.c ****     BPM_ADC_STBY_PWRMGR_DSM_REG &= (uint8)~BPM_ADC_STBY_PWR_DSM_EN;
 1231              		.loc 1 393 0
 1232 006e 1033     		adds	r3, r3, #16
 1233 0070 1A78     		ldrb	r2, [r3]	@ zero_extendqisi2
 1234 0072 02F0FE02 		and	r2, r2, #254
 1235 0076 1A70     		strb	r2, [r3]
 394:.\Generated_Source\PSoC5/BPM_ADC.c **** 
 1236              		.loc 1 394 0
 1237 0078 1A78     		ldrb	r2, [r3]	@ zero_extendqisi2
 1238 007a 02F0EF02 		and	r2, r2, #239
 1239 007e 1A70     		strb	r2, [r3]
 397:.\Generated_Source\PSoC5/BPM_ADC.c **** 
 1240              		.loc 1 397 0
 1241 0080 174A     		ldr	r2, .L48+16
 1242 0082 1378     		ldrb	r3, [r2]	@ zero_extendqisi2
ARM GAS  C:\Users\student\AppData\Local\Temp\ccHj2j2l.s 			page 57


 1243 0084 03F0F903 		and	r3, r3, #249
 1244 0088 1370     		strb	r3, [r2]
 401:.\Generated_Source\PSoC5/BPM_ADC.c ****         BPM_ADC_STBY_PWRMGR_CLK_REG &= (uint8)~BPM_ADC_STBY_PWR_CLK_EN;
 1245              		.loc 1 401 0
 1246 008a A2F5A652 		sub	r2, r2, #5312
 1247 008e 163A     		subs	r2, r2, #22
 1248 0090 1378     		ldrb	r3, [r2]	@ zero_extendqisi2
 1249 0092 03F0FE03 		and	r3, r3, #254
 1250 0096 1370     		strb	r3, [r2]
 402:.\Generated_Source\PSoC5/BPM_ADC.c ****     #endif /* BPM_ADC_DEFAULT_INTERNAL_CLK */
 1251              		.loc 1 402 0
 1252 0098 1032     		adds	r2, r2, #16
 1253 009a 1378     		ldrb	r3, [r2]	@ zero_extendqisi2
 1254 009c 03F0FE03 		and	r3, r3, #254
 1255 00a0 1370     		strb	r3, [r2]
 406:.\Generated_Source\PSoC5/BPM_ADC.c ****     /* Disable power to charge pump clock */
 1256              		.loc 1 406 0
 1257 00a2 02F5A652 		add	r2, r2, #5312
 1258 00a6 1132     		adds	r2, r2, #17
 1259 00a8 1378     		ldrb	r3, [r2]	@ zero_extendqisi2
 1260 00aa 03F0F703 		and	r3, r3, #247
 1261 00ae 1370     		strb	r3, [r2]
 408:.\Generated_Source\PSoC5/BPM_ADC.c ****     BPM_ADC_STBY_PWRMGR_CHARGE_PUMP_CLK_REG &= (uint8)~BPM_ADC_STBY_PWR_CHARGE_PUMP_CLK_EN;
 1262              		.loc 1 408 0
 1263 00b0 A2F5A752 		sub	r2, r2, #5344
 1264 00b4 1378     		ldrb	r3, [r2]	@ zero_extendqisi2
 1265 00b6 03F0FE03 		and	r3, r3, #254
 1266 00ba 1370     		strb	r3, [r2]
 409:.\Generated_Source\PSoC5/BPM_ADC.c ****     
 1267              		.loc 1 409 0
 1268 00bc 1032     		adds	r2, r2, #16
 1269 00be 1378     		ldrb	r3, [r2]	@ zero_extendqisi2
 1270 00c0 03F0FE03 		and	r3, r3, #254
 1271 00c4 1370     		strb	r3, [r2]
 411:.\Generated_Source\PSoC5/BPM_ADC.c **** }
 1272              		.loc 1 411 0
 1273 00c6 3046     		mov	r0, r6
 1274 00c8 FFF7FEFF 		bl	CyExitCriticalSection
 1275              	.LVL80:
 1276 00cc 70BD     		pop	{r4, r5, r6, pc}
 1277              	.LVL81:
 1278              	.L49:
 1279 00ce 00BF     		.align	2
 1280              	.L48:
 1281 00d0 004E0040 		.word	1073761792
 1282 00d4 F8460040 		.word	1073759992
 1283 00d8 F9460040 		.word	1073759993
 1284 00dc AA430040 		.word	1073759146
 1285 00e0 77580040 		.word	1073764471
 1286              		.cfi_endproc
 1287              	.LFE3:
 1288              		.size	BPM_ADC_Stop, .-BPM_ADC_Stop
 1289              		.section	.text.BPM_ADC_SetBufferGain,"ax",%progbits
 1290              		.align	2
 1291              		.global	BPM_ADC_SetBufferGain
 1292              		.thumb
 1293              		.thumb_func
ARM GAS  C:\Users\student\AppData\Local\Temp\ccHj2j2l.s 			page 58


 1294              		.type	BPM_ADC_SetBufferGain, %function
 1295              	BPM_ADC_SetBufferGain:
 1296              	.LFB4:
 430:.\Generated_Source\PSoC5/BPM_ADC.c ****     uint8 tmpReg;
 1297              		.loc 1 430 0
 1298              		.cfi_startproc
 1299              		@ args = 0, pretend = 0, frame = 0
 1300              		@ frame_needed = 0, uses_anonymous_args = 0
 1301              		@ link register save eliminated.
 1302              	.LVL82:
 432:.\Generated_Source\PSoC5/BPM_ADC.c ****     tmpReg |= (uint8)(gain << BPM_ADC_DSM_GAIN_SHIFT) & BPM_ADC_DSM_GAIN_MASK;
 1303              		.loc 1 432 0
 1304 0000 044A     		ldr	r2, .L51
 1305 0002 1378     		ldrb	r3, [r2]	@ zero_extendqisi2
 1306 0004 03F0F303 		and	r3, r3, #243
 1307              	.LVL83:
 433:.\Generated_Source\PSoC5/BPM_ADC.c ****     BPM_ADC_DSM_BUF1_REG = tmpReg;
 1308              		.loc 1 433 0
 1309 0008 8000     		lsls	r0, r0, #2
 1310              	.LVL84:
 1311 000a 00F00C00 		and	r0, r0, #12
 1312 000e 1843     		orrs	r0, r0, r3
 1313              	.LVL85:
 434:.\Generated_Source\PSoC5/BPM_ADC.c **** }
 1314              		.loc 1 434 0
 1315 0010 1070     		strb	r0, [r2]
 1316 0012 7047     		bx	lr
 1317              	.L52:
 1318              		.align	2
 1319              	.L51:
 1320 0014 9B580040 		.word	1073764507
 1321              		.cfi_endproc
 1322              	.LFE4:
 1323              		.size	BPM_ADC_SetBufferGain, .-BPM_ADC_SetBufferGain
 1324              		.section	.text.BPM_ADC_SetCoherency,"ax",%progbits
 1325              		.align	2
 1326              		.global	BPM_ADC_SetCoherency
 1327              		.thumb
 1328              		.thumb_func
 1329              		.type	BPM_ADC_SetCoherency, %function
 1330              	BPM_ADC_SetCoherency:
 1331              	.LFB5:
 466:.\Generated_Source\PSoC5/BPM_ADC.c ****     uint8 tmpReg;
 1332              		.loc 1 466 0
 1333              		.cfi_startproc
 1334              		@ args = 0, pretend = 0, frame = 0
 1335              		@ frame_needed = 0, uses_anonymous_args = 0
 1336              		@ link register save eliminated.
 1337              	.LVL86:
 469:.\Generated_Source\PSoC5/BPM_ADC.c ****     tmpReg |= coherency & BPM_ADC_DEC_SAMP_KEY_MASK;
 1338              		.loc 1 469 0
 1339 0000 044A     		ldr	r2, .L54
 1340 0002 1378     		ldrb	r3, [r2]	@ zero_extendqisi2
 1341 0004 03F0FC03 		and	r3, r3, #252
 1342              	.LVL87:
 470:.\Generated_Source\PSoC5/BPM_ADC.c ****     BPM_ADC_DEC_COHER_REG = tmpReg;
 1343              		.loc 1 470 0
ARM GAS  C:\Users\student\AppData\Local\Temp\ccHj2j2l.s 			page 59


 1344 0008 00F00300 		and	r0, r0, #3
 1345              	.LVL88:
 1346 000c 1843     		orrs	r0, r0, r3
 1347              	.LVL89:
 471:.\Generated_Source\PSoC5/BPM_ADC.c **** }
 1348              		.loc 1 471 0
 1349 000e 1070     		strb	r0, [r2]
 1350 0010 7047     		bx	lr
 1351              	.L55:
 1352 0012 00BF     		.align	2
 1353              	.L54:
 1354 0014 144E0040 		.word	1073761812
 1355              		.cfi_endproc
 1356              	.LFE5:
 1357              		.size	BPM_ADC_SetCoherency, .-BPM_ADC_SetCoherency
 1358              		.global	__aeabi_ui2f
 1359              		.global	__aeabi_fmul
 1360              		.global	__aeabi_f2d
 1361              		.global	__aeabi_dcmpgt
 1362              		.global	__aeabi_f2uiz
 1363              		.section	.text.BPM_ADC_SetGCOR,"ax",%progbits
 1364              		.align	2
 1365              		.global	BPM_ADC_SetGCOR
 1366              		.thumb
 1367              		.thumb_func
 1368              		.type	BPM_ADC_SetGCOR, %function
 1369              	BPM_ADC_SetGCOR:
 1370              	.LFB6:
 506:.\Generated_Source\PSoC5/BPM_ADC.c ****     uint16 tmpReg;
 1371              		.loc 1 506 0
 1372              		.cfi_startproc
 1373              		@ args = 0, pretend = 0, frame = 0
 1374              		@ frame_needed = 0, uses_anonymous_args = 0
 1375              	.LVL90:
 1376 0000 10B5     		push	{r4, lr}
 1377              		.cfi_def_cfa_offset 8
 1378              		.cfi_offset 4, -8
 1379              		.cfi_offset 14, -4
 1380 0002 0446     		mov	r4, r0
 511:.\Generated_Source\PSoC5/BPM_ADC.c ****     tmpValue = ((float32)tmpReg / (float32)BPM_ADC_IDEAL_GAIN_CONST);
 1381              		.loc 1 511 0
 1382 0004 184B     		ldr	r3, .L60+8
 1383 0006 1B78     		ldrb	r3, [r3]	@ zero_extendqisi2
 1384 0008 013B     		subs	r3, r3, #1
 1385              	.LVL91:
 512:.\Generated_Source\PSoC5/BPM_ADC.c ****     tmpValue = tmpValue * gainAdjust;
 1386              		.loc 1 512 0
 1387 000a 184A     		ldr	r2, .L60+12
 1388 000c 32F82300 		ldrh	r0, [r2, r3, lsl #2]
 1389              	.LVL92:
 1390 0010 FFF7FEFF 		bl	__aeabi_ui2f
 1391              	.LVL93:
 1392 0014 4FF06051 		mov	r1, #939524096
 1393 0018 FFF7FEFF 		bl	__aeabi_fmul
 1394              	.LVL94:
 513:.\Generated_Source\PSoC5/BPM_ADC.c **** 
 1395              		.loc 1 513 0
ARM GAS  C:\Users\student\AppData\Local\Temp\ccHj2j2l.s 			page 60


 1396 001c 2146     		mov	r1, r4
 1397 001e FFF7FEFF 		bl	__aeabi_fmul
 1398              	.LVL95:
 1399 0022 0446     		mov	r4, r0
 1400              	.LVL96:
 515:.\Generated_Source\PSoC5/BPM_ADC.c ****     {
 1401              		.loc 1 515 0
 1402 0024 FFF7FEFF 		bl	__aeabi_f2d
 1403              	.LVL97:
 1404 0028 0DA3     		adr	r3, .L60
 1405 002a D3E90023 		ldrd	r2, [r3]
 1406 002e FFF7FEFF 		bl	__aeabi_dcmpgt
 1407              	.LVL98:
 1408 0032 88B9     		cbnz	r0, .L58
 521:.\Generated_Source\PSoC5/BPM_ADC.c **** 		tmpReg = (uint16)tmpValue;
 1409              		.loc 1 521 0
 1410 0034 2046     		mov	r0, r4
 1411 0036 4FF08E41 		mov	r1, #1191182336
 1412 003a FFF7FEFF 		bl	__aeabi_fmul
 1413              	.LVL99:
 522:.\Generated_Source\PSoC5/BPM_ADC.c ****         CY_SET_REG16(BPM_ADC_DEC_GCOR_16B_PTR, tmpReg);
 1414              		.loc 1 522 0
 1415 003e FFF7FEFF 		bl	__aeabi_f2uiz
 1416              	.LVL100:
 1417 0042 80B2     		uxth	r0, r0
 1418              	.LVL101:
 523:.\Generated_Source\PSoC5/BPM_ADC.c ****         /* Update gain array to be used by SelectConfiguration() API */
 1419              		.loc 1 523 0
 1420 0044 0A4B     		ldr	r3, .L60+16
 1421 0046 1880     		strh	r0, [r3]	@ movhi
 525:.\Generated_Source\PSoC5/BPM_ADC.c **** 
 1422              		.loc 1 525 0
 1423 0048 074B     		ldr	r3, .L60+8
 1424 004a 1B78     		ldrb	r3, [r3]	@ zero_extendqisi2
 1425 004c 013B     		subs	r3, r3, #1
 1426 004e 074A     		ldr	r2, .L60+12
 1427 0050 22F82300 		strh	r0, [r2, r3, lsl #2]	@ movhi
 1428              	.LVL102:
 527:.\Generated_Source\PSoC5/BPM_ADC.c **** 
 1429              		.loc 1 527 0
 1430 0054 0020     		movs	r0, #0
 1431              	.LVL103:
 1432 0056 10BD     		pop	{r4, pc}
 1433              	.LVL104:
 1434              	.L58:
 517:.\Generated_Source\PSoC5/BPM_ADC.c ****     }
 1435              		.loc 1 517 0
 1436 0058 0120     		movs	r0, #1
 1437              	.LVL105:
 531:.\Generated_Source\PSoC5/BPM_ADC.c **** 
 1438              		.loc 1 531 0
 1439 005a 10BD     		pop	{r4, pc}
 1440              	.LVL106:
 1441              	.L61:
 1442 005c AFF30080 		.align	3
 1443              	.L60:
 1444 0060 8F537424 		.word	611603343
ARM GAS  C:\Users\student\AppData\Local\Temp\ccHj2j2l.s 			page 61


 1445 0064 97FFFF3F 		.word	1073741719
 1446 0068 00000000 		.word	.LANCHOR1
 1447 006c 00000000 		.word	.LANCHOR0
 1448 0070 0C4E0040 		.word	1073761804
 1449              		.cfi_endproc
 1450              	.LFE6:
 1451              		.size	BPM_ADC_SetGCOR, .-BPM_ADC_SetGCOR
 1452 0074 AFF30080 		.section	.text.BPM_ADC_ReadGCOR,"ax",%progbits
 1453              		.align	2
 1454              		.global	BPM_ADC_ReadGCOR
 1455              		.thumb
 1456              		.thumb_func
 1457              		.type	BPM_ADC_ReadGCOR, %function
 1458              	BPM_ADC_ReadGCOR:
 1459              	.LFB7:
 553:.\Generated_Source\PSoC5/BPM_ADC.c ****     uint8 gValue;
 1460              		.loc 1 553 0
 1461              		.cfi_startproc
 1462              		@ args = 0, pretend = 0, frame = 0
 1463              		@ frame_needed = 0, uses_anonymous_args = 0
 1464              		@ link register save eliminated.
 557:.\Generated_Source\PSoC5/BPM_ADC.c ****     gcorValue = CY_GET_REG16(BPM_ADC_DEC_GCOR_16B_PTR);
 1465              		.loc 1 557 0
 1466 0000 064B     		ldr	r3, .L64
 1467 0002 1B78     		ldrb	r3, [r3]	@ zero_extendqisi2
 1468 0004 DBB2     		uxtb	r3, r3
 1469              	.LVL107:
 558:.\Generated_Source\PSoC5/BPM_ADC.c **** 
 1470              		.loc 1 558 0
 1471 0006 064A     		ldr	r2, .L64+4
 1472 0008 1088     		ldrh	r0, [r2]
 1473 000a 80B2     		uxth	r0, r0
 1474              	.LVL108:
 560:.\Generated_Source\PSoC5/BPM_ADC.c ****     {
 1475              		.loc 1 560 0
 1476 000c 0E2B     		cmp	r3, #14
 1477 000e 03D8     		bhi	.L63
 562:.\Generated_Source\PSoC5/BPM_ADC.c ****     }
 1478              		.loc 1 562 0
 1479 0010 C3F10F03 		rsb	r3, r3, #15
 1480              	.LVL109:
 1481 0014 9840     		lsls	r0, r0, r3
 1482              	.LVL110:
 1483 0016 80B2     		uxth	r0, r0
 1484              	.LVL111:
 1485              	.L63:
 566:.\Generated_Source\PSoC5/BPM_ADC.c **** 
 1486              		.loc 1 566 0
 1487 0018 7047     		bx	lr
 1488              	.L65:
 1489 001a 00BF     		.align	2
 1490              	.L64:
 1491 001c 0E4E0040 		.word	1073761806
 1492 0020 0C4E0040 		.word	1073761804
 1493              		.cfi_endproc
 1494              	.LFE7:
 1495              		.size	BPM_ADC_ReadGCOR, .-BPM_ADC_ReadGCOR
ARM GAS  C:\Users\student\AppData\Local\Temp\ccHj2j2l.s 			page 62


 1496              		.section	.text.BPM_ADC_StartConvert,"ax",%progbits
 1497              		.align	2
 1498              		.global	BPM_ADC_StartConvert
 1499              		.thumb
 1500              		.thumb_func
 1501              		.type	BPM_ADC_StartConvert, %function
 1502              	BPM_ADC_StartConvert:
 1503              	.LFB8:
 587:.\Generated_Source\PSoC5/BPM_ADC.c ****     /* Start the conversion */
 1504              		.loc 1 587 0
 1505              		.cfi_startproc
 1506              		@ args = 0, pretend = 0, frame = 0
 1507              		@ frame_needed = 0, uses_anonymous_args = 0
 1508              		@ link register save eliminated.
 589:.\Generated_Source\PSoC5/BPM_ADC.c **** }
 1509              		.loc 1 589 0
 1510 0000 024A     		ldr	r2, .L67
 1511 0002 1378     		ldrb	r3, [r2]	@ zero_extendqisi2
 1512 0004 43F00103 		orr	r3, r3, #1
 1513 0008 1370     		strb	r3, [r2]
 1514 000a 7047     		bx	lr
 1515              	.L68:
 1516              		.align	2
 1517              	.L67:
 1518 000c 004E0040 		.word	1073761792
 1519              		.cfi_endproc
 1520              	.LFE8:
 1521              		.size	BPM_ADC_StartConvert, .-BPM_ADC_StartConvert
 1522              		.section	.text.BPM_ADC_StopConvert,"ax",%progbits
 1523              		.align	2
 1524              		.global	BPM_ADC_StopConvert
 1525              		.thumb
 1526              		.thumb_func
 1527              		.type	BPM_ADC_StopConvert, %function
 1528              	BPM_ADC_StopConvert:
 1529              	.LFB9:
 610:.\Generated_Source\PSoC5/BPM_ADC.c ****     /* Stop all conversions */
 1530              		.loc 1 610 0
 1531              		.cfi_startproc
 1532              		@ args = 0, pretend = 0, frame = 0
 1533              		@ frame_needed = 0, uses_anonymous_args = 0
 1534              		@ link register save eliminated.
 612:.\Generated_Source\PSoC5/BPM_ADC.c **** }
 1535              		.loc 1 612 0
 1536 0000 024A     		ldr	r2, .L70
 1537 0002 1378     		ldrb	r3, [r2]	@ zero_extendqisi2
 1538 0004 03F0FE03 		and	r3, r3, #254
 1539 0008 1370     		strb	r3, [r2]
 1540 000a 7047     		bx	lr
 1541              	.L71:
 1542              		.align	2
 1543              	.L70:
 1544 000c 004E0040 		.word	1073761792
 1545              		.cfi_endproc
 1546              	.LFE9:
 1547              		.size	BPM_ADC_StopConvert, .-BPM_ADC_StopConvert
 1548              		.section	.text.BPM_ADC_IsEndConversion,"ax",%progbits
ARM GAS  C:\Users\student\AppData\Local\Temp\ccHj2j2l.s 			page 63


 1549              		.align	2
 1550              		.global	BPM_ADC_IsEndConversion
 1551              		.thumb
 1552              		.thumb_func
 1553              		.type	BPM_ADC_IsEndConversion, %function
 1554              	BPM_ADC_IsEndConversion:
 1555              	.LFB10:
 645:.\Generated_Source\PSoC5/BPM_ADC.c ****     uint8 status;
 1556              		.loc 1 645 0
 1557              		.cfi_startproc
 1558              		@ args = 0, pretend = 0, frame = 0
 1559              		@ frame_needed = 0, uses_anonymous_args = 0
 1560              		@ link register save eliminated.
 1561              	.LVL112:
 1562              	.L76:
 653:.\Generated_Source\PSoC5/BPM_ADC.c ****         {
 1563              		.loc 1 653 0
 1564 0000 094B     		ldr	r3, .L77
 1565 0002 1B7C     		ldrb	r3, [r3, #16]	@ zero_extendqisi2
 1566 0004 13F0FF0F 		tst	r3, #255
 1567 0008 03D0     		beq	.L73
 655:.\Generated_Source\PSoC5/BPM_ADC.c ****         }
 1568              		.loc 1 655 0
 1569 000a 074B     		ldr	r3, .L77
 1570 000c 5B7C     		ldrb	r3, [r3, #17]	@ zero_extendqisi2
 1571 000e DBB2     		uxtb	r3, r3
 1572              	.LVL113:
 1573 0010 03E0     		b	.L74
 1574              	.LVL114:
 1575              	.L73:
 659:.\Generated_Source\PSoC5/BPM_ADC.c ****         }
 1576              		.loc 1 659 0
 1577 0012 064B     		ldr	r3, .L77+4
 1578 0014 1B78     		ldrb	r3, [r3]	@ zero_extendqisi2
 1579 0016 03F00103 		and	r3, r3, #1
 1580              	.LVL115:
 1581              	.L74:
 661:.\Generated_Source\PSoC5/BPM_ADC.c **** 
 1582              		.loc 1 661 0
 1583 001a 012B     		cmp	r3, #1
 1584 001c 01D0     		beq	.L75
 661:.\Generated_Source\PSoC5/BPM_ADC.c **** 
 1585              		.loc 1 661 0 is_stmt 0 discriminator 1
 1586 001e 0028     		cmp	r0, #0
 1587 0020 EED0     		beq	.L76
 1588              	.L75:
 664:.\Generated_Source\PSoC5/BPM_ADC.c **** 
 1589              		.loc 1 664 0 is_stmt 1
 1590 0022 1846     		mov	r0, r3
 1591              	.LVL116:
 1592 0024 7047     		bx	lr
 1593              	.L78:
 1594 0026 00BF     		.align	2
 1595              	.L77:
 1596 0028 00000000 		.word	.LANCHOR0
 1597 002c 014E0040 		.word	1073761793
 1598              		.cfi_endproc
ARM GAS  C:\Users\student\AppData\Local\Temp\ccHj2j2l.s 			page 64


 1599              	.LFE10:
 1600              		.size	BPM_ADC_IsEndConversion, .-BPM_ADC_IsEndConversion
 1601              		.section	.text.BPM_ADC_GetResult8,"ax",%progbits
 1602              		.align	2
 1603              		.global	BPM_ADC_GetResult8
 1604              		.thumb
 1605              		.thumb_func
 1606              		.type	BPM_ADC_GetResult8, %function
 1607              	BPM_ADC_GetResult8:
 1608              	.LFB11:
 692:.\Generated_Source\PSoC5/BPM_ADC.c ****     int8 result;
 1609              		.loc 1 692 0
 1610              		.cfi_startproc
 1611              		@ args = 0, pretend = 0, frame = 0
 1612              		@ frame_needed = 0, uses_anonymous_args = 0
 1613              		@ link register save eliminated.
 697:.\Generated_Source\PSoC5/BPM_ADC.c **** 
 1614              		.loc 1 697 0
 1615 0000 0C4B     		ldr	r3, .L83
 1616 0002 1B78     		ldrb	r3, [r3]	@ zero_extendqisi2
 1617 0004 03F00303 		and	r3, r3, #3
 1618              	.LVL117:
 699:.\Generated_Source\PSoC5/BPM_ADC.c **** 
 1619              		.loc 1 699 0
 1620 0008 0B4A     		ldr	r2, .L83+4
 1621 000a 1078     		ldrb	r0, [r2]	@ zero_extendqisi2
 1622              	.LVL118:
 701:.\Generated_Source\PSoC5/BPM_ADC.c ****     {   /* Dummy read of the middle byte to unlock the coherency */
 1623              		.loc 1 701 0
 1624 000c 022B     		cmp	r3, #2
 1625 000e 02D1     		bne	.L80
 703:.\Generated_Source\PSoC5/BPM_ADC.c ****     }
 1626              		.loc 1 703 0
 1627 0010 0A4B     		ldr	r3, .L83+8
 1628              	.LVL119:
 1629 0012 1B78     		ldrb	r3, [r3]	@ zero_extendqisi2
 1630 0014 03E0     		b	.L81
 1631              	.LVL120:
 1632              	.L80:
 705:.\Generated_Source\PSoC5/BPM_ADC.c ****     {   /* Dummy read of the MSB byte to unlock the coherency */
 1633              		.loc 1 705 0
 1634 0016 032B     		cmp	r3, #3
 1635 0018 01D1     		bne	.L81
 707:.\Generated_Source\PSoC5/BPM_ADC.c ****     }
 1636              		.loc 1 707 0
 1637 001a 094B     		ldr	r3, .L83+12
 1638              	.LVL121:
 1639 001c 1B78     		ldrb	r3, [r3]	@ zero_extendqisi2
 1640              	.L81:
 713:.\Generated_Source\PSoC5/BPM_ADC.c ****     {
 1641              		.loc 1 713 0
 1642 001e 094B     		ldr	r3, .L83+16
 1643 0020 1B7C     		ldrb	r3, [r3, #16]	@ zero_extendqisi2
 1644 0022 13F0FF0F 		tst	r3, #255
 1645 0026 02D0     		beq	.L82
 715:.\Generated_Source\PSoC5/BPM_ADC.c ****     }
 1646              		.loc 1 715 0
ARM GAS  C:\Users\student\AppData\Local\Temp\ccHj2j2l.s 			page 65


 1647 0028 0022     		movs	r2, #0
 1648 002a 064B     		ldr	r3, .L83+16
 1649 002c 5A74     		strb	r2, [r3, #17]
 1650              	.L82:
 718:.\Generated_Source\PSoC5/BPM_ADC.c **** 
 1651              		.loc 1 718 0
 1652 002e 40B2     		sxtb	r0, r0
 1653 0030 7047     		bx	lr
 1654              	.L84:
 1655 0032 00BF     		.align	2
 1656              	.L83:
 1657 0034 144E0040 		.word	1073761812
 1658 0038 104E0040 		.word	1073761808
 1659 003c 114E0040 		.word	1073761809
 1660 0040 124E0040 		.word	1073761810
 1661 0044 00000000 		.word	.LANCHOR0
 1662              		.cfi_endproc
 1663              	.LFE11:
 1664              		.size	BPM_ADC_GetResult8, .-BPM_ADC_GetResult8
 1665              		.section	.text.BPM_ADC_GetResult16,"ax",%progbits
 1666              		.align	2
 1667              		.global	BPM_ADC_GetResult16
 1668              		.thumb
 1669              		.thumb_func
 1670              		.type	BPM_ADC_GetResult16, %function
 1671              	BPM_ADC_GetResult16:
 1672              	.LFB12:
 746:.\Generated_Source\PSoC5/BPM_ADC.c ****     uint16 result;
 1673              		.loc 1 746 0
 1674              		.cfi_startproc
 1675              		@ args = 0, pretend = 0, frame = 0
 1676              		@ frame_needed = 0, uses_anonymous_args = 0
 1677              		@ link register save eliminated.
 751:.\Generated_Source\PSoC5/BPM_ADC.c **** 
 1678              		.loc 1 751 0
 1679 0000 0E4B     		ldr	r3, .L89
 1680 0002 1B78     		ldrb	r3, [r3]	@ zero_extendqisi2
 1681 0004 03F00303 		and	r3, r3, #3
 1682              	.LVL122:
 753:.\Generated_Source\PSoC5/BPM_ADC.c ****     {   /*  Use default method to read result registers i.e. LSB byte read at the end*/
 1683              		.loc 1 753 0
 1684 0008 012B     		cmp	r3, #1
 1685 000a 03D8     		bhi	.L86
 759:.\Generated_Source\PSoC5/BPM_ADC.c ****         #endif /* CY_PSOC3 */
 1686              		.loc 1 759 0
 1687 000c 0C4B     		ldr	r3, .L89+4
 1688              	.LVL123:
 1689 000e 1888     		ldrh	r0, [r3]
 1690 0010 80B2     		uxth	r0, r0
 1691              	.LVL124:
 1692 0012 09E0     		b	.L87
 1693              	.LVL125:
 1694              	.L86:
 767:.\Generated_Source\PSoC5/BPM_ADC.c ****             result |=  (uint16)((uint16)BPM_ADC_DEC_SAMPM_REG << 8u);
 1695              		.loc 1 767 0
 1696 0014 0A4A     		ldr	r2, .L89+4
 1697 0016 1278     		ldrb	r2, [r2]	@ zero_extendqisi2
ARM GAS  C:\Users\student\AppData\Local\Temp\ccHj2j2l.s 			page 66


 1698              	.LVL126:
 768:.\Generated_Source\PSoC5/BPM_ADC.c ****         #endif /* CY_PSOC3 */
 1699              		.loc 1 768 0
 1700 0018 0A49     		ldr	r1, .L89+8
 1701 001a 0878     		ldrb	r0, [r1]	@ zero_extendqisi2
 1702 001c 42EA0020 		orr	r0, r2, r0, lsl #8
 1703              	.LVL127:
 770:.\Generated_Source\PSoC5/BPM_ADC.c ****         {   /* Dummy read of the MSB byte to unlock the coherency */
 1704              		.loc 1 770 0
 1705 0020 032B     		cmp	r3, #3
 1706 0022 01D1     		bne	.L87
 772:.\Generated_Source\PSoC5/BPM_ADC.c ****         }
 1707              		.loc 1 772 0
 1708 0024 084B     		ldr	r3, .L89+12
 1709              	.LVL128:
 1710 0026 1B78     		ldrb	r3, [r3]	@ zero_extendqisi2
 1711              	.L87:
 776:.\Generated_Source\PSoC5/BPM_ADC.c ****     {
 1712              		.loc 1 776 0
 1713 0028 084B     		ldr	r3, .L89+16
 1714 002a 1B7C     		ldrb	r3, [r3, #16]	@ zero_extendqisi2
 1715 002c 13F0FF0F 		tst	r3, #255
 1716 0030 02D0     		beq	.L88
 778:.\Generated_Source\PSoC5/BPM_ADC.c ****     }
 1717              		.loc 1 778 0
 1718 0032 0022     		movs	r2, #0
 1719 0034 054B     		ldr	r3, .L89+16
 1720 0036 5A74     		strb	r2, [r3, #17]
 1721              	.L88:
 782:.\Generated_Source\PSoC5/BPM_ADC.c **** 
 1722              		.loc 1 782 0
 1723 0038 00B2     		sxth	r0, r0
 1724 003a 7047     		bx	lr
 1725              	.L90:
 1726              		.align	2
 1727              	.L89:
 1728 003c 144E0040 		.word	1073761812
 1729 0040 104E0040 		.word	1073761808
 1730 0044 114E0040 		.word	1073761809
 1731 0048 124E0040 		.word	1073761810
 1732 004c 00000000 		.word	.LANCHOR0
 1733              		.cfi_endproc
 1734              	.LFE12:
 1735              		.size	BPM_ADC_GetResult16, .-BPM_ADC_GetResult16
 1736              		.section	.text.BPM_ADC_GetResult32,"ax",%progbits
 1737              		.align	2
 1738              		.global	BPM_ADC_GetResult32
 1739              		.thumb
 1740              		.thumb_func
 1741              		.type	BPM_ADC_GetResult32, %function
 1742              	BPM_ADC_GetResult32:
 1743              	.LFB13:
 806:.\Generated_Source\PSoC5/BPM_ADC.c ****     uint32 result;
 1744              		.loc 1 806 0
 1745              		.cfi_startproc
 1746              		@ args = 0, pretend = 0, frame = 0
 1747              		@ frame_needed = 0, uses_anonymous_args = 0
ARM GAS  C:\Users\student\AppData\Local\Temp\ccHj2j2l.s 			page 67


 1748              		@ link register save eliminated.
 814:.\Generated_Source\PSoC5/BPM_ADC.c **** 
 1749              		.loc 1 814 0
 1750 0000 154B     		ldr	r3, .L96
 1751 0002 1B78     		ldrb	r3, [r3]	@ zero_extendqisi2
 1752 0004 03F00303 		and	r3, r3, #3
 1753              	.LVL129:
 816:.\Generated_Source\PSoC5/BPM_ADC.c ****     {   /*  Use default method to read result registers i.e. LSB byte read at the end*/
 1754              		.loc 1 816 0
 1755 0008 012B     		cmp	r3, #1
 1756 000a 07D8     		bhi	.L92
 827:.\Generated_Source\PSoC5/BPM_ADC.c ****             result = (result << 16u) | (CY_GET_REG16(BPM_ADC_DEC_SAMP_16B_PTR));
 1757              		.loc 1 827 0
 1758 000c 134B     		ldr	r3, .L96+4
 1759              	.LVL130:
 1760 000e 1888     		ldrh	r0, [r3]
 1761              	.LVL131:
 828:.\Generated_Source\PSoC5/BPM_ADC.c ****         #endif /* CY_PSOC3 */
 1762              		.loc 1 828 0
 1763 0010 023B     		subs	r3, r3, #2
 1764 0012 1B88     		ldrh	r3, [r3]
 1765 0014 9BB2     		uxth	r3, r3
 1766 0016 43EA0040 		orr	r0, r3, r0, lsl #16
 1767              	.LVL132:
 1768 001a 13E0     		b	.L93
 1769              	.LVL133:
 1770              	.L92:
 831:.\Generated_Source\PSoC5/BPM_ADC.c ****     {   /* Read middle byte at the end */
 1771              		.loc 1 831 0
 1772 001c 022B     		cmp	r3, #2
 1773 001e 0AD1     		bne	.L94
 841:.\Generated_Source\PSoC5/BPM_ADC.c ****             result = (result << 16u) | BPM_ADC_DEC_SAMP_REG;
 1774              		.loc 1 841 0
 1775 0020 0E4B     		ldr	r3, .L96+4
 1776              	.LVL134:
 1777 0022 1888     		ldrh	r0, [r3]
 1778              	.LVL135:
 842:.\Generated_Source\PSoC5/BPM_ADC.c ****             result |=  (uint32)((uint32)BPM_ADC_DEC_SAMPM_REG << 8u);
 1779              		.loc 1 842 0
 1780 0024 023B     		subs	r3, r3, #2
 1781 0026 1B78     		ldrb	r3, [r3]	@ zero_extendqisi2
 1782 0028 43EA0043 		orr	r3, r3, r0, lsl #16
 1783              	.LVL136:
 843:.\Generated_Source\PSoC5/BPM_ADC.c ****         #endif /* CY_PSOC3 */
 1784              		.loc 1 843 0
 1785 002c 0C4A     		ldr	r2, .L96+8
 1786 002e 1078     		ldrb	r0, [r2]	@ zero_extendqisi2
 1787 0030 43EA0020 		orr	r0, r3, r0, lsl #8
 1788              	.LVL137:
 1789 0034 06E0     		b	.L93
 1790              	.LVL138:
 1791              	.L94:
 858:.\Generated_Source\PSoC5/BPM_ADC.c ****             result |= (uint32)((uint32)CY_GET_REG16(BPM_ADC_DEC_SAMPH_16B_PTR) << 16u);
 1792              		.loc 1 858 0
 1793 0036 0B4B     		ldr	r3, .L96+12
 1794              	.LVL139:
 1795 0038 1888     		ldrh	r0, [r3]
ARM GAS  C:\Users\student\AppData\Local\Temp\ccHj2j2l.s 			page 68


 1796 003a 83B2     		uxth	r3, r0
 1797              	.LVL140:
 859:.\Generated_Source\PSoC5/BPM_ADC.c ****         #endif /* CY_PSOC3 */
 1798              		.loc 1 859 0
 1799 003c 074A     		ldr	r2, .L96+4
 1800 003e 1088     		ldrh	r0, [r2]
 1801 0040 43EA0040 		orr	r0, r3, r0, lsl #16
 1802              	.LVL141:
 1803              	.L93:
 863:.\Generated_Source\PSoC5/BPM_ADC.c ****     {
 1804              		.loc 1 863 0
 1805 0044 084B     		ldr	r3, .L96+16
 1806 0046 1B7C     		ldrb	r3, [r3, #16]	@ zero_extendqisi2
 1807 0048 13F0FF0F 		tst	r3, #255
 1808 004c 02D0     		beq	.L95
 865:.\Generated_Source\PSoC5/BPM_ADC.c ****     }
 1809              		.loc 1 865 0
 1810 004e 0022     		movs	r2, #0
 1811 0050 054B     		ldr	r3, .L96+16
 1812 0052 5A74     		strb	r2, [r3, #17]
 1813              	.L95:
 869:.\Generated_Source\PSoC5/BPM_ADC.c **** 
 1814              		.loc 1 869 0
 1815 0054 7047     		bx	lr
 1816              	.L97:
 1817 0056 00BF     		.align	2
 1818              	.L96:
 1819 0058 144E0040 		.word	1073761812
 1820 005c 124E0040 		.word	1073761810
 1821 0060 114E0040 		.word	1073761809
 1822 0064 104E0040 		.word	1073761808
 1823 0068 00000000 		.word	.LANCHOR0
 1824              		.cfi_endproc
 1825              	.LFE13:
 1826              		.size	BPM_ADC_GetResult32, .-BPM_ADC_GetResult32
 1827              		.section	.text.BPM_ADC_SetOffset,"ax",%progbits
 1828              		.align	2
 1829              		.global	BPM_ADC_SetOffset
 1830              		.thumb
 1831              		.thumb_func
 1832              		.type	BPM_ADC_SetOffset, %function
 1833              	BPM_ADC_SetOffset:
 1834              	.LFB14:
 899:.\Generated_Source\PSoC5/BPM_ADC.c **** 
 1835              		.loc 1 899 0
 1836              		.cfi_startproc
 1837              		@ args = 0, pretend = 0, frame = 0
 1838              		@ frame_needed = 0, uses_anonymous_args = 0
 1839              		@ link register save eliminated.
 1840              	.LVL142:
 901:.\Generated_Source\PSoC5/BPM_ADC.c **** }
 1841              		.loc 1 901 0
 1842 0000 014B     		ldr	r3, .L99
 1843 0002 1860     		str	r0, [r3]
 1844 0004 7047     		bx	lr
 1845              	.L100:
 1846 0006 00BF     		.align	2
ARM GAS  C:\Users\student\AppData\Local\Temp\ccHj2j2l.s 			page 69


 1847              	.L99:
 1848 0008 00000000 		.word	BPM_ADC_Offset
 1849              		.cfi_endproc
 1850              	.LFE14:
 1851              		.size	BPM_ADC_SetOffset, .-BPM_ADC_SetOffset
 1852              		.section	.text.BPM_ADC_SetGain,"ax",%progbits
 1853              		.align	2
 1854              		.global	BPM_ADC_SetGain
 1855              		.thumb
 1856              		.thumb_func
 1857              		.type	BPM_ADC_SetGain, %function
 1858              	BPM_ADC_SetGain:
 1859              	.LFB15:
 934:.\Generated_Source\PSoC5/BPM_ADC.c ****     BPM_ADC_CountsPerVolt = adcGain;
 1860              		.loc 1 934 0
 1861              		.cfi_startproc
 1862              		@ args = 0, pretend = 0, frame = 0
 1863              		@ frame_needed = 0, uses_anonymous_args = 0
 1864              		@ link register save eliminated.
 1865              	.LVL143:
 935:.\Generated_Source\PSoC5/BPM_ADC.c **** }
 1866              		.loc 1 935 0
 1867 0000 014B     		ldr	r3, .L102
 1868 0002 1860     		str	r0, [r3]
 1869 0004 7047     		bx	lr
 1870              	.L103:
 1871 0006 00BF     		.align	2
 1872              	.L102:
 1873 0008 00000000 		.word	BPM_ADC_CountsPerVolt
 1874              		.cfi_endproc
 1875              	.LFE15:
 1876              		.size	BPM_ADC_SetGain, .-BPM_ADC_SetGain
 1877              		.section	.text.BPM_ADC_CountsTo_mVolts,"ax",%progbits
 1878              		.align	2
 1879              		.global	BPM_ADC_CountsTo_mVolts
 1880              		.thumb
 1881              		.thumb_func
 1882              		.type	BPM_ADC_CountsTo_mVolts, %function
 1883              	BPM_ADC_CountsTo_mVolts:
 1884              	.LFB16:
 961:.\Generated_Source\PSoC5/BPM_ADC.c **** 
 1885              		.loc 1 961 0
 1886              		.cfi_startproc
 1887              		@ args = 0, pretend = 0, frame = 0
 1888              		@ frame_needed = 0, uses_anonymous_args = 0
 1889              		@ link register save eliminated.
 1890              	.LVL144:
 992:.\Generated_Source\PSoC5/BPM_ADC.c **** 
 1891              		.loc 1 992 0
 1892 0000 064B     		ldr	r3, .L105
 1893 0002 1B68     		ldr	r3, [r3]
 1894 0004 C01A     		subs	r0, r0, r3
 1895              	.LVL145:
 994:.\Generated_Source\PSoC5/BPM_ADC.c **** 
 1896              		.loc 1 994 0
 1897 0006 4FF47A73 		mov	r3, #1000
 1898 000a 03FB00F0 		mul	r0, r3, r0
ARM GAS  C:\Users\student\AppData\Local\Temp\ccHj2j2l.s 			page 70


 1899              	.LVL146:
 1900 000e 044B     		ldr	r3, .L105+4
 1901 0010 1B68     		ldr	r3, [r3]
 1902 0012 90FBF3F0 		sdiv	r0, r0, r3
 1903              	.LVL147:
 997:.\Generated_Source\PSoC5/BPM_ADC.c **** 
 1904              		.loc 1 997 0
 1905 0016 00B2     		sxth	r0, r0
 1906 0018 7047     		bx	lr
 1907              	.L106:
 1908 001a 00BF     		.align	2
 1909              	.L105:
 1910 001c 00000000 		.word	BPM_ADC_Offset
 1911 0020 00000000 		.word	BPM_ADC_CountsPerVolt
 1912              		.cfi_endproc
 1913              	.LFE16:
 1914              		.size	BPM_ADC_CountsTo_mVolts, .-BPM_ADC_CountsTo_mVolts
 1915              		.global	__aeabi_i2f
 1916              		.global	__aeabi_fdiv
 1917              		.section	.text.BPM_ADC_CountsTo_Volts,"ax",%progbits
 1918              		.align	2
 1919              		.global	BPM_ADC_CountsTo_Volts
 1920              		.thumb
 1921              		.thumb_func
 1922              		.type	BPM_ADC_CountsTo_Volts, %function
 1923              	BPM_ADC_CountsTo_Volts:
 1924              	.LFB17:
1022:.\Generated_Source\PSoC5/BPM_ADC.c **** 
 1925              		.loc 1 1022 0
 1926              		.cfi_startproc
 1927              		@ args = 0, pretend = 0, frame = 0
 1928              		@ frame_needed = 0, uses_anonymous_args = 0
 1929              	.LVL148:
 1930 0000 10B5     		push	{r4, lr}
 1931              		.cfi_def_cfa_offset 8
 1932              		.cfi_offset 4, -8
 1933              		.cfi_offset 14, -4
1053:.\Generated_Source\PSoC5/BPM_ADC.c **** 
 1934              		.loc 1 1053 0
 1935 0002 074B     		ldr	r3, .L109
 1936 0004 1B68     		ldr	r3, [r3]
 1937              	.LVL149:
1055:.\Generated_Source\PSoC5/BPM_ADC.c **** 
 1938              		.loc 1 1055 0
 1939 0006 C01A     		subs	r0, r0, r3
 1940              	.LVL150:
 1941 0008 FFF7FEFF 		bl	__aeabi_i2f
 1942              	.LVL151:
 1943 000c 0446     		mov	r4, r0
 1944 000e 054B     		ldr	r3, .L109+4
 1945 0010 1868     		ldr	r0, [r3]
 1946 0012 FFF7FEFF 		bl	__aeabi_i2f
 1947              	.LVL152:
 1948 0016 0146     		mov	r1, r0
 1949 0018 2046     		mov	r0, r4
 1950 001a FFF7FEFF 		bl	__aeabi_fdiv
 1951              	.LVL153:
ARM GAS  C:\Users\student\AppData\Local\Temp\ccHj2j2l.s 			page 71


1058:.\Generated_Source\PSoC5/BPM_ADC.c **** 
 1952              		.loc 1 1058 0
 1953 001e 10BD     		pop	{r4, pc}
 1954              	.L110:
 1955              		.align	2
 1956              	.L109:
 1957 0020 00000000 		.word	BPM_ADC_Offset
 1958 0024 00000000 		.word	BPM_ADC_CountsPerVolt
 1959              		.cfi_endproc
 1960              	.LFE17:
 1961              		.size	BPM_ADC_CountsTo_Volts, .-BPM_ADC_CountsTo_Volts
 1962              		.section	.text.BPM_ADC_CountsTo_uVolts,"ax",%progbits
 1963              		.align	2
 1964              		.global	BPM_ADC_CountsTo_uVolts
 1965              		.thumb
 1966              		.thumb_func
 1967              		.type	BPM_ADC_CountsTo_uVolts, %function
 1968              	BPM_ADC_CountsTo_uVolts:
 1969              	.LFB18:
1088:.\Generated_Source\PSoC5/BPM_ADC.c **** 
 1970              		.loc 1 1088 0
 1971              		.cfi_startproc
 1972              		@ args = 0, pretend = 0, frame = 0
 1973              		@ frame_needed = 0, uses_anonymous_args = 0
 1974              		@ link register save eliminated.
 1975              	.LVL154:
 1976 0000 10B4     		push	{r4}
 1977              		.cfi_def_cfa_offset 4
 1978              		.cfi_offset 4, -4
1097:.\Generated_Source\PSoC5/BPM_ADC.c ****     {
 1979              		.loc 1 1097 0
 1980 0002 184B     		ldr	r3, .L121
 1981 0004 1B78     		ldrb	r3, [r3]	@ zero_extendqisi2
 1982 0006 DBB2     		uxtb	r3, r3
 1983 0008 012B     		cmp	r3, #1
 1984 000a 08D0     		beq	.L116
1104:.\Generated_Source\PSoC5/BPM_ADC.c ****     {
 1985              		.loc 1 1104 0
 1986 000c 154B     		ldr	r3, .L121
 1987 000e 1B78     		ldrb	r3, [r3]	@ zero_extendqisi2
 1988 0010 DBB2     		uxtb	r3, r3
 1989 0012 022B     		cmp	r3, #2
 1990 0014 05D0     		beq	.L117
1111:.\Generated_Source\PSoC5/BPM_ADC.c ****     {
 1991              		.loc 1 1111 0
 1992 0016 134B     		ldr	r3, .L121
 1993 0018 1B78     		ldrb	r3, [r3]	@ zero_extendqisi2
1113:.\Generated_Source\PSoC5/BPM_ADC.c ****         #if(BPM_ADC_CFG3_DEC_DIV != 0)
 1994              		.loc 1 1113 0
 1995 001a 1023     		movs	r3, #16
 1996 001c 02E0     		b	.L112
 1997              	.L116:
1099:.\Generated_Source\PSoC5/BPM_ADC.c ****         #if(BPM_ADC_CFG1_DEC_DIV != 0)
 1998              		.loc 1 1099 0
 1999 001e 0C23     		movs	r3, #12
 2000 0020 00E0     		b	.L112
 2001              	.L117:
ARM GAS  C:\Users\student\AppData\Local\Temp\ccHj2j2l.s 			page 72


1106:.\Generated_Source\PSoC5/BPM_ADC.c ****         #if(BPM_ADC_CFG2_DEC_DIV != 0)
 2002              		.loc 1 1106 0
 2003 0022 1023     		movs	r3, #16
 2004              	.L112:
 2005              	.LVL155:
1126:.\Generated_Source\PSoC5/BPM_ADC.c ****     {
 2006              		.loc 1 1126 0
 2007 0024 0C2B     		cmp	r3, #12
 2008 0026 02D0     		beq	.L114
 2009 0028 102B     		cmp	r3, #16
 2010 002a 06D0     		beq	.L118
 2011 002c 02E0     		b	.L119
 2012              	.L114:
1134:.\Generated_Source\PSoC5/BPM_ADC.c ****                 break;
 2013              		.loc 1 1134 0
 2014 002e 0221     		movs	r1, #2
1133:.\Generated_Source\PSoC5/BPM_ADC.c ****                 coefB = BPM_ADC_DIVISOR_2;
 2015              		.loc 1 1133 0
 2016 0030 0D4C     		ldr	r4, .L121+4
 2017 0032 05E0     		b	.L115
 2018              	.L119:
 2019              	.LVL156:
1212:.\Generated_Source\PSoC5/BPM_ADC.c ****             break;
 2020              		.loc 1 1212 0
 2021 0034 0121     		movs	r1, #1
1211:.\Generated_Source\PSoC5/BPM_ADC.c ****             coefB = BPM_ADC_DIVISOR_1;
 2022              		.loc 1 1211 0
 2023 0036 0D4C     		ldr	r4, .L121+8
1213:.\Generated_Source\PSoC5/BPM_ADC.c ****     }
 2024              		.loc 1 1213 0
 2025 0038 02E0     		b	.L115
 2026              	.LVL157:
 2027              	.L118:
1170:.\Generated_Source\PSoC5/BPM_ADC.c ****                 break;
 2028              		.loc 1 1170 0
 2029 003a 2021     		movs	r1, #32
1169:.\Generated_Source\PSoC5/BPM_ADC.c ****                 coefB = BPM_ADC_DIVISOR_32;
 2030              		.loc 1 1169 0
 2031 003c 47F61224 		movw	r4, #31250
 2032              	.L115:
 2033              	.LVL158:
1215:.\Generated_Source\PSoC5/BPM_ADC.c ****     uVolts = ((coefA * adcCounts) / coefB) - ((coefA * BPM_ADC_Offset) / coefB);
 2034              		.loc 1 1215 0
 2035 0040 0B4B     		ldr	r3, .L121+12
 2036              	.LVL159:
 2037 0042 1B68     		ldr	r3, [r3]
 2038 0044 93FBF1F1 		sdiv	r1, r3, r1
 2039              	.LVL160:
1216:.\Generated_Source\PSoC5/BPM_ADC.c **** 
 2040              		.loc 1 1216 0
 2041 0048 00FB04F0 		mul	r0, r0, r4
 2042              	.LVL161:
 2043 004c 90FBF1F3 		sdiv	r3, r0, r1
 2044 0050 084A     		ldr	r2, .L121+16
 2045 0052 1268     		ldr	r2, [r2]
 2046 0054 02FB04F2 		mul	r2, r2, r4
 2047 0058 92FBF1F0 		sdiv	r0, r2, r1
ARM GAS  C:\Users\student\AppData\Local\Temp\ccHj2j2l.s 			page 73


 2048              	.LVL162:
1219:.\Generated_Source\PSoC5/BPM_ADC.c **** 
 2049              		.loc 1 1219 0
 2050 005c 181A     		subs	r0, r3, r0
 2051              	.LVL163:
 2052 005e 5DF8044B 		ldr	r4, [sp], #4
 2053              		.cfi_restore 4
 2054              		.cfi_def_cfa_offset 0
 2055              	.LVL164:
 2056 0062 7047     		bx	lr
 2057              	.L122:
 2058              		.align	2
 2059              	.L121:
 2060 0064 00000000 		.word	.LANCHOR1
 2061 0068 20A10700 		.word	500000
 2062 006c 40420F00 		.word	1000000
 2063 0070 00000000 		.word	BPM_ADC_CountsPerVolt
 2064 0074 00000000 		.word	BPM_ADC_Offset
 2065              		.cfi_endproc
 2066              	.LFE18:
 2067              		.size	BPM_ADC_CountsTo_uVolts, .-BPM_ADC_CountsTo_uVolts
 2068              		.section	.text.BPM_ADC_SelectConfiguration,"ax",%progbits
 2069              		.align	2
 2070              		.global	BPM_ADC_SelectConfiguration
 2071              		.thumb
 2072              		.thumb_func
 2073              		.type	BPM_ADC_SelectConfiguration, %function
 2074              	BPM_ADC_SelectConfiguration:
 2075              	.LFB20:
1554:.\Generated_Source\PSoC5/BPM_ADC.c ****     /* Check whether the configuration number is valid or not */
 2076              		.loc 1 1554 0
 2077              		.cfi_startproc
 2078              		@ args = 0, pretend = 0, frame = 0
 2079              		@ frame_needed = 0, uses_anonymous_args = 0
 2080              	.LVL165:
 2081 0000 38B5     		push	{r3, r4, r5, lr}
 2082              		.cfi_def_cfa_offset 16
 2083              		.cfi_offset 3, -16
 2084              		.cfi_offset 4, -12
 2085              		.cfi_offset 5, -8
 2086              		.cfi_offset 14, -4
 2087 0002 0446     		mov	r4, r0
1556:.\Generated_Source\PSoC5/BPM_ADC.c ****     {
 2088              		.loc 1 1556 0
 2089 0004 431E     		subs	r3, r0, #1
 2090 0006 DBB2     		uxtb	r3, r3
 2091 0008 032B     		cmp	r3, #3
 2092 000a 1FD8     		bhi	.L124
 2093 000c 0D46     		mov	r5, r1
1561:.\Generated_Source\PSoC5/BPM_ADC.c ****         {
 2094              		.loc 1 1561 0
 2095 000e 114B     		ldr	r3, .L128
 2096 0010 9B7C     		ldrb	r3, [r3, #18]	@ zero_extendqisi2
 2097 0012 13B9     		cbnz	r3, .L125
1563:.\Generated_Source\PSoC5/BPM_ADC.c ****         }
 2098              		.loc 1 1563 0
 2099 0014 0122     		movs	r2, #1
ARM GAS  C:\Users\student\AppData\Local\Temp\ccHj2j2l.s 			page 74


 2100 0016 0F4B     		ldr	r3, .L128
 2101 0018 DA74     		strb	r2, [r3, #19]
 2102              	.L125:
1567:.\Generated_Source\PSoC5/BPM_ADC.c **** 
 2103              		.loc 1 1567 0
 2104 001a 0F4B     		ldr	r3, .L128+4
 2105 001c 1C70     		strb	r4, [r3]
1570:.\Generated_Source\PSoC5/BPM_ADC.c **** 
 2106              		.loc 1 1570 0
 2107 001e FFF7FEFF 		bl	BPM_ADC_Stop
 2108              	.LVL166:
1573:.\Generated_Source\PSoC5/BPM_ADC.c **** 
 2109              		.loc 1 1573 0
 2110 0022 2046     		mov	r0, r4
 2111 0024 FFF7FEFF 		bl	BPM_ADC_InitConfig
 2112              	.LVL167:
1576:.\Generated_Source\PSoC5/BPM_ADC.c ****         CY_SET_REG16(BPM_ADC_DEC_GCOR_16B_PTR, BPM_ADC_gcor[config - 1u].gcor);
 2113              		.loc 1 1576 0
 2114 0028 013C     		subs	r4, r4, #1
 2115 002a 0A4B     		ldr	r3, .L128
 2116 002c 03EB8402 		add	r2, r3, r4, lsl #2
 2117 0030 9178     		ldrb	r1, [r2, #2]	@ zero_extendqisi2
 2118 0032 0A4A     		ldr	r2, .L128+8
 2119 0034 1170     		strb	r1, [r2]
1577:.\Generated_Source\PSoC5/BPM_ADC.c **** 
 2120              		.loc 1 1577 0
 2121 0036 33F82420 		ldrh	r2, [r3, r4, lsl #2]
 2122 003a 094B     		ldr	r3, .L128+12
 2123 003c 1A80     		strh	r2, [r3]	@ movhi
1579:.\Generated_Source\PSoC5/BPM_ADC.c ****         {
 2124              		.loc 1 1579 0
 2125 003e 012D     		cmp	r5, #1
 2126 0040 07D1     		bne	.L123
1582:.\Generated_Source\PSoC5/BPM_ADC.c **** 
 2127              		.loc 1 1582 0
 2128 0042 FFF7FEFF 		bl	BPM_ADC_Start
 2129              	.LVL168:
1585:.\Generated_Source\PSoC5/BPM_ADC.c ****         }
 2130              		.loc 1 1585 0
 2131 0046 FFF7FEFF 		bl	BPM_ADC_StartConvert
 2132              	.LVL169:
 2133 004a 38BD     		pop	{r3, r4, r5, pc}
 2134              	.LVL170:
 2135              	.L124:
1591:.\Generated_Source\PSoC5/BPM_ADC.c ****     }
 2136              		.loc 1 1591 0 discriminator 1
 2137 004c 0020     		movs	r0, #0
 2138              	.LVL171:
 2139 004e FFF7FEFF 		bl	CyHalt
 2140              	.LVL172:
 2141              	.L123:
 2142 0052 38BD     		pop	{r3, r4, r5, pc}
 2143              	.L129:
 2144              		.align	2
 2145              	.L128:
 2146 0054 00000000 		.word	.LANCHOR0
 2147 0058 00000000 		.word	.LANCHOR1
ARM GAS  C:\Users\student\AppData\Local\Temp\ccHj2j2l.s 			page 75


 2148 005c 0E4E0040 		.word	1073761806
 2149 0060 0C4E0040 		.word	1073761804
 2150              		.cfi_endproc
 2151              	.LFE20:
 2152              		.size	BPM_ADC_SelectConfiguration, .-BPM_ADC_SelectConfiguration
 2153              		.section	.text.BPM_ADC_Read8,"ax",%progbits
 2154              		.align	2
 2155              		.global	BPM_ADC_Read8
 2156              		.thumb
 2157              		.thumb_func
 2158              		.type	BPM_ADC_Read8, %function
 2159              	BPM_ADC_Read8:
 2160              	.LFB23:
1741:.\Generated_Source\PSoC5/BPM_ADC.c **** }
1742:.\Generated_Source\PSoC5/BPM_ADC.c **** 
1743:.\Generated_Source\PSoC5/BPM_ADC.c **** 
1744:.\Generated_Source\PSoC5/BPM_ADC.c **** /*******************************************************************************
1745:.\Generated_Source\PSoC5/BPM_ADC.c **** * Function Name: BPM_ADC_Read8
1746:.\Generated_Source\PSoC5/BPM_ADC.c **** ********************************************************************************
1747:.\Generated_Source\PSoC5/BPM_ADC.c **** *
1748:.\Generated_Source\PSoC5/BPM_ADC.c **** * Summary:
1749:.\Generated_Source\PSoC5/BPM_ADC.c **** *  This function simplifies getting results from the ADC when only a
1750:.\Generated_Source\PSoC5/BPM_ADC.c **** *  single reading is required. When called, it will start ADC
1751:.\Generated_Source\PSoC5/BPM_ADC.c **** *  conversions, wait for the conversion to be complete, stop ADC
1752:.\Generated_Source\PSoC5/BPM_ADC.c **** *  conversion and return the result. This is a blocking function and will
1753:.\Generated_Source\PSoC5/BPM_ADC.c **** *  not return until the result is ready.
1754:.\Generated_Source\PSoC5/BPM_ADC.c **** *
1755:.\Generated_Source\PSoC5/BPM_ADC.c **** * Parameters:
1756:.\Generated_Source\PSoC5/BPM_ADC.c **** *  None
1757:.\Generated_Source\PSoC5/BPM_ADC.c **** *
1758:.\Generated_Source\PSoC5/BPM_ADC.c **** * Return:
1759:.\Generated_Source\PSoC5/BPM_ADC.c **** *  int8:  ADC result.
1760:.\Generated_Source\PSoC5/BPM_ADC.c **** *
1761:.\Generated_Source\PSoC5/BPM_ADC.c **** *******************************************************************************/
1762:.\Generated_Source\PSoC5/BPM_ADC.c **** int8 BPM_ADC_Read8(void) 
1763:.\Generated_Source\PSoC5/BPM_ADC.c **** {
 2161              		.loc 1 1763 0
 2162              		.cfi_startproc
 2163              		@ args = 0, pretend = 0, frame = 0
 2164              		@ frame_needed = 0, uses_anonymous_args = 0
 2165 0000 10B5     		push	{r4, lr}
 2166              		.cfi_def_cfa_offset 8
 2167              		.cfi_offset 4, -8
 2168              		.cfi_offset 14, -4
1764:.\Generated_Source\PSoC5/BPM_ADC.c ****     int8 result;
1765:.\Generated_Source\PSoC5/BPM_ADC.c **** 
1766:.\Generated_Source\PSoC5/BPM_ADC.c ****     /* Clear pending conversion done status */
1767:.\Generated_Source\PSoC5/BPM_ADC.c ****     BPM_ADC_DEC_SR_REG |= BPM_ADC_DEC_INTR_CLEAR;
 2169              		.loc 1 1767 0
 2170 0002 084A     		ldr	r2, .L132
 2171 0004 1378     		ldrb	r3, [r2]	@ zero_extendqisi2
 2172 0006 43F00403 		orr	r3, r3, #4
 2173 000a 1370     		strb	r3, [r2]
1768:.\Generated_Source\PSoC5/BPM_ADC.c ****     BPM_ADC_StartConvert();
 2174              		.loc 1 1768 0
 2175 000c FFF7FEFF 		bl	BPM_ADC_StartConvert
 2176              	.LVL173:
ARM GAS  C:\Users\student\AppData\Local\Temp\ccHj2j2l.s 			page 76


1769:.\Generated_Source\PSoC5/BPM_ADC.c ****     (void)BPM_ADC_IsEndConversion(BPM_ADC_WAIT_FOR_RESULT);
 2177              		.loc 1 1769 0
 2178 0010 0020     		movs	r0, #0
 2179 0012 FFF7FEFF 		bl	BPM_ADC_IsEndConversion
 2180              	.LVL174:
1770:.\Generated_Source\PSoC5/BPM_ADC.c ****      result = BPM_ADC_GetResult8();
 2181              		.loc 1 1770 0
 2182 0016 FFF7FEFF 		bl	BPM_ADC_GetResult8
 2183              	.LVL175:
 2184 001a 0446     		mov	r4, r0
 2185              	.LVL176:
1771:.\Generated_Source\PSoC5/BPM_ADC.c ****     BPM_ADC_StopConvert();
 2186              		.loc 1 1771 0
 2187 001c FFF7FEFF 		bl	BPM_ADC_StopConvert
 2188              	.LVL177:
1772:.\Generated_Source\PSoC5/BPM_ADC.c ****     
1773:.\Generated_Source\PSoC5/BPM_ADC.c ****      return(result);
1774:.\Generated_Source\PSoC5/BPM_ADC.c **** }
 2189              		.loc 1 1774 0
 2190 0020 2046     		mov	r0, r4
 2191 0022 10BD     		pop	{r4, pc}
 2192              	.LVL178:
 2193              	.L133:
 2194              		.align	2
 2195              	.L132:
 2196 0024 014E0040 		.word	1073761793
 2197              		.cfi_endproc
 2198              	.LFE23:
 2199              		.size	BPM_ADC_Read8, .-BPM_ADC_Read8
 2200              		.section	.text.BPM_ADC_Read16,"ax",%progbits
 2201              		.align	2
 2202              		.global	BPM_ADC_Read16
 2203              		.thumb
 2204              		.thumb_func
 2205              		.type	BPM_ADC_Read16, %function
 2206              	BPM_ADC_Read16:
 2207              	.LFB24:
1775:.\Generated_Source\PSoC5/BPM_ADC.c **** 
1776:.\Generated_Source\PSoC5/BPM_ADC.c **** 
1777:.\Generated_Source\PSoC5/BPM_ADC.c **** /*******************************************************************************
1778:.\Generated_Source\PSoC5/BPM_ADC.c **** * Function Name: BPM_ADC_Read16
1779:.\Generated_Source\PSoC5/BPM_ADC.c **** ********************************************************************************
1780:.\Generated_Source\PSoC5/BPM_ADC.c **** *
1781:.\Generated_Source\PSoC5/BPM_ADC.c **** * Summary:
1782:.\Generated_Source\PSoC5/BPM_ADC.c **** *  This function simplifies getting results from the ADC when only a
1783:.\Generated_Source\PSoC5/BPM_ADC.c **** *  single reading is required. When called, it will start ADC
1784:.\Generated_Source\PSoC5/BPM_ADC.c **** *  conversions, wait for the conversion to be complete, stop ADC
1785:.\Generated_Source\PSoC5/BPM_ADC.c **** *  conversion and return the result. This is a blocking function and will
1786:.\Generated_Source\PSoC5/BPM_ADC.c **** *  not return until the result is ready.
1787:.\Generated_Source\PSoC5/BPM_ADC.c **** *
1788:.\Generated_Source\PSoC5/BPM_ADC.c **** * Parameters:
1789:.\Generated_Source\PSoC5/BPM_ADC.c **** *   void
1790:.\Generated_Source\PSoC5/BPM_ADC.c **** *
1791:.\Generated_Source\PSoC5/BPM_ADC.c **** * Return:
1792:.\Generated_Source\PSoC5/BPM_ADC.c **** *  int16:  ADC result.
1793:.\Generated_Source\PSoC5/BPM_ADC.c **** *
1794:.\Generated_Source\PSoC5/BPM_ADC.c **** *******************************************************************************/
ARM GAS  C:\Users\student\AppData\Local\Temp\ccHj2j2l.s 			page 77


1795:.\Generated_Source\PSoC5/BPM_ADC.c **** int16 BPM_ADC_Read16(void) 
1796:.\Generated_Source\PSoC5/BPM_ADC.c **** {
 2208              		.loc 1 1796 0
 2209              		.cfi_startproc
 2210              		@ args = 0, pretend = 0, frame = 0
 2211              		@ frame_needed = 0, uses_anonymous_args = 0
 2212 0000 10B5     		push	{r4, lr}
 2213              		.cfi_def_cfa_offset 8
 2214              		.cfi_offset 4, -8
 2215              		.cfi_offset 14, -4
1797:.\Generated_Source\PSoC5/BPM_ADC.c ****     int16 result;
1798:.\Generated_Source\PSoC5/BPM_ADC.c **** 
1799:.\Generated_Source\PSoC5/BPM_ADC.c ****     /* Clear pending conversion done status */
1800:.\Generated_Source\PSoC5/BPM_ADC.c ****     BPM_ADC_DEC_SR_REG |= BPM_ADC_DEC_INTR_CLEAR;
 2216              		.loc 1 1800 0
 2217 0002 084A     		ldr	r2, .L136
 2218 0004 1378     		ldrb	r3, [r2]	@ zero_extendqisi2
 2219 0006 43F00403 		orr	r3, r3, #4
 2220 000a 1370     		strb	r3, [r2]
1801:.\Generated_Source\PSoC5/BPM_ADC.c ****     BPM_ADC_StartConvert();
 2221              		.loc 1 1801 0
 2222 000c FFF7FEFF 		bl	BPM_ADC_StartConvert
 2223              	.LVL179:
1802:.\Generated_Source\PSoC5/BPM_ADC.c ****     (void)BPM_ADC_IsEndConversion(BPM_ADC_WAIT_FOR_RESULT);
 2224              		.loc 1 1802 0
 2225 0010 0020     		movs	r0, #0
 2226 0012 FFF7FEFF 		bl	BPM_ADC_IsEndConversion
 2227              	.LVL180:
1803:.\Generated_Source\PSoC5/BPM_ADC.c ****      result = BPM_ADC_GetResult16();
 2228              		.loc 1 1803 0
 2229 0016 FFF7FEFF 		bl	BPM_ADC_GetResult16
 2230              	.LVL181:
 2231 001a 0446     		mov	r4, r0
 2232              	.LVL182:
1804:.\Generated_Source\PSoC5/BPM_ADC.c ****     BPM_ADC_StopConvert();
 2233              		.loc 1 1804 0
 2234 001c FFF7FEFF 		bl	BPM_ADC_StopConvert
 2235              	.LVL183:
1805:.\Generated_Source\PSoC5/BPM_ADC.c ****     
1806:.\Generated_Source\PSoC5/BPM_ADC.c ****      return(result);
1807:.\Generated_Source\PSoC5/BPM_ADC.c **** }
 2236              		.loc 1 1807 0
 2237 0020 2046     		mov	r0, r4
 2238 0022 10BD     		pop	{r4, pc}
 2239              	.LVL184:
 2240              	.L137:
 2241              		.align	2
 2242              	.L136:
 2243 0024 014E0040 		.word	1073761793
 2244              		.cfi_endproc
 2245              	.LFE24:
 2246              		.size	BPM_ADC_Read16, .-BPM_ADC_Read16
 2247              		.section	.text.BPM_ADC_Read32,"ax",%progbits
 2248              		.align	2
 2249              		.global	BPM_ADC_Read32
 2250              		.thumb
 2251              		.thumb_func
ARM GAS  C:\Users\student\AppData\Local\Temp\ccHj2j2l.s 			page 78


 2252              		.type	BPM_ADC_Read32, %function
 2253              	BPM_ADC_Read32:
 2254              	.LFB25:
1808:.\Generated_Source\PSoC5/BPM_ADC.c **** 
1809:.\Generated_Source\PSoC5/BPM_ADC.c **** 
1810:.\Generated_Source\PSoC5/BPM_ADC.c **** /*******************************************************************************
1811:.\Generated_Source\PSoC5/BPM_ADC.c **** * Function Name: BPM_ADC_Read32
1812:.\Generated_Source\PSoC5/BPM_ADC.c **** ********************************************************************************
1813:.\Generated_Source\PSoC5/BPM_ADC.c **** *
1814:.\Generated_Source\PSoC5/BPM_ADC.c **** * Summary:
1815:.\Generated_Source\PSoC5/BPM_ADC.c **** *  This function simplifies getting results from the ADC when only a
1816:.\Generated_Source\PSoC5/BPM_ADC.c **** *  single reading is required. When called, it will start ADC
1817:.\Generated_Source\PSoC5/BPM_ADC.c **** *  conversions, wait for the conversion to be complete, stop ADC
1818:.\Generated_Source\PSoC5/BPM_ADC.c **** *  conversion and return the result. This is a blocking function and will
1819:.\Generated_Source\PSoC5/BPM_ADC.c **** *  not return until the result is ready.
1820:.\Generated_Source\PSoC5/BPM_ADC.c **** *
1821:.\Generated_Source\PSoC5/BPM_ADC.c **** * Parameters:
1822:.\Generated_Source\PSoC5/BPM_ADC.c **** *  None
1823:.\Generated_Source\PSoC5/BPM_ADC.c **** *
1824:.\Generated_Source\PSoC5/BPM_ADC.c **** * Return:
1825:.\Generated_Source\PSoC5/BPM_ADC.c **** *  int32: ADC result.
1826:.\Generated_Source\PSoC5/BPM_ADC.c **** *
1827:.\Generated_Source\PSoC5/BPM_ADC.c **** *******************************************************************************/
1828:.\Generated_Source\PSoC5/BPM_ADC.c **** int32 BPM_ADC_Read32(void) 
1829:.\Generated_Source\PSoC5/BPM_ADC.c **** {
 2255              		.loc 1 1829 0
 2256              		.cfi_startproc
 2257              		@ args = 0, pretend = 0, frame = 0
 2258              		@ frame_needed = 0, uses_anonymous_args = 0
 2259 0000 10B5     		push	{r4, lr}
 2260              		.cfi_def_cfa_offset 8
 2261              		.cfi_offset 4, -8
 2262              		.cfi_offset 14, -4
1830:.\Generated_Source\PSoC5/BPM_ADC.c ****     int32 result;
1831:.\Generated_Source\PSoC5/BPM_ADC.c ****     
1832:.\Generated_Source\PSoC5/BPM_ADC.c ****     /* Clear pending conversion done status */
1833:.\Generated_Source\PSoC5/BPM_ADC.c ****     BPM_ADC_DEC_SR_REG |= BPM_ADC_DEC_INTR_CLEAR;
 2263              		.loc 1 1833 0
 2264 0002 084A     		ldr	r2, .L140
 2265 0004 1378     		ldrb	r3, [r2]	@ zero_extendqisi2
 2266 0006 43F00403 		orr	r3, r3, #4
 2267 000a 1370     		strb	r3, [r2]
1834:.\Generated_Source\PSoC5/BPM_ADC.c ****     BPM_ADC_StartConvert();
 2268              		.loc 1 1834 0
 2269 000c FFF7FEFF 		bl	BPM_ADC_StartConvert
 2270              	.LVL185:
1835:.\Generated_Source\PSoC5/BPM_ADC.c ****     (void)BPM_ADC_IsEndConversion(BPM_ADC_WAIT_FOR_RESULT);
 2271              		.loc 1 1835 0
 2272 0010 0020     		movs	r0, #0
 2273 0012 FFF7FEFF 		bl	BPM_ADC_IsEndConversion
 2274              	.LVL186:
1836:.\Generated_Source\PSoC5/BPM_ADC.c ****      result = BPM_ADC_GetResult32();
 2275              		.loc 1 1836 0
 2276 0016 FFF7FEFF 		bl	BPM_ADC_GetResult32
 2277              	.LVL187:
 2278 001a 0446     		mov	r4, r0
 2279              	.LVL188:
ARM GAS  C:\Users\student\AppData\Local\Temp\ccHj2j2l.s 			page 79


1837:.\Generated_Source\PSoC5/BPM_ADC.c ****     BPM_ADC_StopConvert();
 2280              		.loc 1 1837 0
 2281 001c FFF7FEFF 		bl	BPM_ADC_StopConvert
 2282              	.LVL189:
1838:.\Generated_Source\PSoC5/BPM_ADC.c ****     
1839:.\Generated_Source\PSoC5/BPM_ADC.c ****      return(result);
1840:.\Generated_Source\PSoC5/BPM_ADC.c **** }
 2283              		.loc 1 1840 0
 2284 0020 2046     		mov	r0, r4
 2285 0022 10BD     		pop	{r4, pc}
 2286              	.LVL190:
 2287              	.L141:
 2288              		.align	2
 2289              	.L140:
 2290 0024 014E0040 		.word	1073761793
 2291              		.cfi_endproc
 2292              	.LFE25:
 2293              		.size	BPM_ADC_Read32, .-BPM_ADC_Read32
 2294              		.comm	BPM_ADC_CountsPerVolt,4,4
 2295              		.comm	BPM_ADC_Offset,4,4
 2296              		.global	BPM_ADC_Config
 2297              		.global	BPM_ADC_started
 2298              		.global	BPM_ADC_initVar
 2299              		.global	BPM_ADC_stopConversion
 2300              		.global	BPM_ADC_convDone
 2301              		.data
 2302              		.set	.LANCHOR1,. + 0
 2303              		.type	BPM_ADC_Config, %object
 2304              		.size	BPM_ADC_Config, 1
 2305              	BPM_ADC_Config:
 2306 0000 01       		.byte	1
 2307              		.bss
 2308              		.align	2
 2309              		.set	.LANCHOR0,. + 0
 2310              		.type	BPM_ADC_gcor, %object
 2311              		.size	BPM_ADC_gcor, 16
 2312              	BPM_ADC_gcor:
 2313 0000 00000000 		.space	16
 2313      00000000 
 2313      00000000 
 2313      00000000 
 2314              		.type	BPM_ADC_stopConversion, %object
 2315              		.size	BPM_ADC_stopConversion, 1
 2316              	BPM_ADC_stopConversion:
 2317 0010 00       		.space	1
 2318              		.type	BPM_ADC_convDone, %object
 2319              		.size	BPM_ADC_convDone, 1
 2320              	BPM_ADC_convDone:
 2321 0011 00       		.space	1
 2322              		.type	BPM_ADC_initVar, %object
 2323              		.size	BPM_ADC_initVar, 1
 2324              	BPM_ADC_initVar:
 2325 0012 00       		.space	1
 2326              		.type	BPM_ADC_started, %object
 2327              		.size	BPM_ADC_started, 1
 2328              	BPM_ADC_started:
 2329 0013 00       		.space	1
ARM GAS  C:\Users\student\AppData\Local\Temp\ccHj2j2l.s 			page 80


 2330              		.text
 2331              	.Letext0:
 2332              		.file 2 ".\\Generated_Source\\PSoC5\\cytypes.h"
 2333              		.file 3 ".\\Generated_Source\\PSoC5\\BPM_ADC.h"
 2334              		.file 4 ".\\Generated_Source\\PSoC5\\CyLib.h"
 2335              		.file 5 ".\\Generated_Source\\PSoC5\\BPM_ADC_AMux.h"
 2336              		.file 6 ".\\Generated_Source\\PSoC5\\BPM_ADC_Ext_CP_Clk.h"
 2337              		.file 7 ".\\Generated_Source\\PSoC5\\BPM_ADC_theACLK.h"
 2338              		.section	.debug_info,"",%progbits
 2339              	.Ldebug_info0:
 2340 0000 480C0000 		.4byte	0xc48
 2341 0004 0400     		.2byte	0x4
 2342 0006 00000000 		.4byte	.Ldebug_abbrev0
 2343 000a 04       		.byte	0x4
 2344 000b 01       		.uleb128 0x1
 2345 000c 20050000 		.4byte	.LASF98
 2346 0010 01       		.byte	0x1
 2347 0011 39060000 		.4byte	.LASF99
 2348 0015 D5040000 		.4byte	.LASF100
 2349 0019 00000000 		.4byte	.Ldebug_ranges0+0
 2350 001d 00000000 		.4byte	0
 2351 0021 00000000 		.4byte	.Ldebug_line0
 2352 0025 02       		.uleb128 0x2
 2353 0026 04       		.byte	0x4
 2354 0027 04       		.byte	0x4
 2355 0028 9E030000 		.4byte	.LASF0
 2356 002c 02       		.uleb128 0x2
 2357 002d 01       		.byte	0x1
 2358 002e 06       		.byte	0x6
 2359 002f EC000000 		.4byte	.LASF1
 2360 0033 02       		.uleb128 0x2
 2361 0034 01       		.byte	0x1
 2362 0035 08       		.byte	0x8
 2363 0036 C8030000 		.4byte	.LASF2
 2364 003a 02       		.uleb128 0x2
 2365 003b 02       		.byte	0x2
 2366 003c 05       		.byte	0x5
 2367 003d D6030000 		.4byte	.LASF3
 2368 0041 02       		.uleb128 0x2
 2369 0042 02       		.byte	0x2
 2370 0043 07       		.byte	0x7
 2371 0044 8C020000 		.4byte	.LASF4
 2372 0048 02       		.uleb128 0x2
 2373 0049 04       		.byte	0x4
 2374 004a 05       		.byte	0x5
 2375 004b FE000000 		.4byte	.LASF5
 2376 004f 02       		.uleb128 0x2
 2377 0050 04       		.byte	0x4
 2378 0051 07       		.byte	0x7
 2379 0052 40020000 		.4byte	.LASF6
 2380 0056 02       		.uleb128 0x2
 2381 0057 08       		.byte	0x8
 2382 0058 05       		.byte	0x5
 2383 0059 DE000000 		.4byte	.LASF7
 2384 005d 02       		.uleb128 0x2
 2385 005e 08       		.byte	0x8
 2386 005f 07       		.byte	0x7
ARM GAS  C:\Users\student\AppData\Local\Temp\ccHj2j2l.s 			page 81


 2387 0060 71000000 		.4byte	.LASF8
 2388 0064 03       		.uleb128 0x3
 2389 0065 04       		.byte	0x4
 2390 0066 05       		.byte	0x5
 2391 0067 696E7400 		.ascii	"int\000"
 2392 006b 02       		.uleb128 0x2
 2393 006c 04       		.byte	0x4
 2394 006d 07       		.byte	0x7
 2395 006e 14020000 		.4byte	.LASF9
 2396 0072 04       		.uleb128 0x4
 2397 0073 1A010000 		.4byte	.LASF10
 2398 0077 02       		.byte	0x2
 2399 0078 9201     		.2byte	0x192
 2400 007a 33000000 		.4byte	0x33
 2401 007e 04       		.uleb128 0x4
 2402 007f 00000000 		.4byte	.LASF11
 2403 0083 02       		.byte	0x2
 2404 0084 9301     		.2byte	0x193
 2405 0086 41000000 		.4byte	0x41
 2406 008a 04       		.uleb128 0x4
 2407 008b 74010000 		.4byte	.LASF12
 2408 008f 02       		.byte	0x2
 2409 0090 9401     		.2byte	0x194
 2410 0092 4F000000 		.4byte	0x4f
 2411 0096 04       		.uleb128 0x4
 2412 0097 9F020000 		.4byte	.LASF13
 2413 009b 02       		.byte	0x2
 2414 009c 9501     		.2byte	0x195
 2415 009e 2C000000 		.4byte	0x2c
 2416 00a2 04       		.uleb128 0x4
 2417 00a3 C9050000 		.4byte	.LASF14
 2418 00a7 02       		.byte	0x2
 2419 00a8 9601     		.2byte	0x196
 2420 00aa 3A000000 		.4byte	0x3a
 2421 00ae 04       		.uleb128 0x4
 2422 00af F8000000 		.4byte	.LASF15
 2423 00b3 02       		.byte	0x2
 2424 00b4 9701     		.2byte	0x197
 2425 00b6 48000000 		.4byte	0x48
 2426 00ba 04       		.uleb128 0x4
 2427 00bb 27030000 		.4byte	.LASF16
 2428 00bf 02       		.byte	0x2
 2429 00c0 9801     		.2byte	0x198
 2430 00c2 25000000 		.4byte	0x25
 2431 00c6 02       		.uleb128 0x2
 2432 00c7 08       		.byte	0x8
 2433 00c8 04       		.byte	0x4
 2434 00c9 3D010000 		.4byte	.LASF17
 2435 00cd 02       		.uleb128 0x2
 2436 00ce 01       		.byte	0x1
 2437 00cf 08       		.byte	0x8
 2438 00d0 38040000 		.4byte	.LASF18
 2439 00d4 04       		.uleb128 0x4
 2440 00d5 A4030000 		.4byte	.LASF19
 2441 00d9 02       		.byte	0x2
 2442 00da 3C02     		.2byte	0x23c
 2443 00dc E0000000 		.4byte	0xe0
ARM GAS  C:\Users\student\AppData\Local\Temp\ccHj2j2l.s 			page 82


 2444 00e0 05       		.uleb128 0x5
 2445 00e1 72000000 		.4byte	0x72
 2446 00e5 04       		.uleb128 0x4
 2447 00e6 14010000 		.4byte	.LASF20
 2448 00ea 02       		.byte	0x2
 2449 00eb 3D02     		.2byte	0x23d
 2450 00ed F1000000 		.4byte	0xf1
 2451 00f1 05       		.uleb128 0x5
 2452 00f2 7E000000 		.4byte	0x7e
 2453 00f6 04       		.uleb128 0x4
 2454 00f7 F9020000 		.4byte	.LASF21
 2455 00fb 02       		.byte	0x2
 2456 00fc 3E02     		.2byte	0x23e
 2457 00fe 02010000 		.4byte	0x102
 2458 0102 05       		.uleb128 0x5
 2459 0103 8A000000 		.4byte	0x8a
 2460 0107 04       		.uleb128 0x4
 2461 0108 56040000 		.4byte	.LASF22
 2462 010c 02       		.byte	0x2
 2463 010d 4E02     		.2byte	0x24e
 2464 010f 13010000 		.4byte	0x113
 2465 0113 06       		.uleb128 0x6
 2466 0114 04       		.byte	0x4
 2467 0115 19010000 		.4byte	0x119
 2468 0119 07       		.uleb128 0x7
 2469 011a 02       		.uleb128 0x2
 2470 011b 04       		.byte	0x4
 2471 011c 07       		.byte	0x7
 2472 011d 3E030000 		.4byte	.LASF23
 2473 0121 08       		.uleb128 0x8
 2474 0122 04       		.byte	0x4
 2475 0123 03       		.byte	0x3
 2476 0124 2F       		.byte	0x2f
 2477 0125 42010000 		.4byte	0x142
 2478 0129 09       		.uleb128 0x9
 2479 012a 48000000 		.4byte	.LASF24
 2480 012e 03       		.byte	0x3
 2481 012f 31       		.byte	0x31
 2482 0130 7E000000 		.4byte	0x7e
 2483 0134 00       		.byte	0
 2484 0135 09       		.uleb128 0x9
 2485 0136 80040000 		.4byte	.LASF25
 2486 013a 03       		.byte	0x3
 2487 013b 32       		.byte	0x32
 2488 013c 72000000 		.4byte	0x72
 2489 0140 02       		.byte	0x2
 2490 0141 00       		.byte	0
 2491 0142 0A       		.uleb128 0xa
 2492 0143 D8020000 		.4byte	.LASF26
 2493 0147 03       		.byte	0x3
 2494 0148 33       		.byte	0x33
 2495 0149 21010000 		.4byte	0x121
 2496 014d 0B       		.uleb128 0xb
 2497 014e 3D040000 		.4byte	.LASF36
 2498 0152 01       		.byte	0x1
 2499 0153 5106     		.2byte	0x651
 2500 0155 00000000 		.4byte	.LFB21
ARM GAS  C:\Users\student\AppData\Local\Temp\ccHj2j2l.s 			page 83


 2501 0159 D0000000 		.4byte	.LFE21-.LFB21
 2502 015d 01       		.uleb128 0x1
 2503 015e 9C       		.byte	0x9c
 2504 015f 03020000 		.4byte	0x203
 2505 0163 0C       		.uleb128 0xc
 2506 0164 25000000 		.4byte	.LASF27
 2507 0168 01       		.byte	0x1
 2508 0169 5106     		.2byte	0x651
 2509 016b 72000000 		.4byte	0x72
 2510 016f 00000000 		.4byte	.LLST0
 2511 0173 0C       		.uleb128 0xc
 2512 0174 A9030000 		.4byte	.LASF28
 2513 0178 01       		.byte	0x1
 2514 0179 5106     		.2byte	0x651
 2515 017b 7E000000 		.4byte	0x7e
 2516 017f 3A000000 		.4byte	.LLST1
 2517 0183 0C       		.uleb128 0xc
 2518 0184 AF000000 		.4byte	.LASF29
 2519 0188 01       		.byte	0x1
 2520 0189 5106     		.2byte	0x651
 2521 018b 7E000000 		.4byte	0x7e
 2522 018f 74000000 		.4byte	.LLST2
 2523 0193 0C       		.uleb128 0xc
 2524 0194 21040000 		.4byte	.LASF30
 2525 0198 01       		.byte	0x1
 2526 0199 5206     		.2byte	0x652
 2527 019b 72000000 		.4byte	0x72
 2528 019f AE000000 		.4byte	.LLST3
 2529 01a3 0C       		.uleb128 0xc
 2530 01a4 63040000 		.4byte	.LASF31
 2531 01a8 01       		.byte	0x1
 2532 01a9 5206     		.2byte	0x652
 2533 01ab 72000000 		.4byte	0x72
 2534 01af 01010000 		.4byte	.LLST4
 2535 01b3 0D       		.uleb128 0xd
 2536 01b4 F3020000 		.4byte	.LASF32
 2537 01b8 01       		.byte	0x1
 2538 01b9 5406     		.2byte	0x654
 2539 01bb 96000000 		.4byte	0x96
 2540 01bf 2D010000 		.4byte	.LLST5
 2541 01c3 0D       		.uleb128 0xd
 2542 01c4 B6030000 		.4byte	.LASF33
 2543 01c8 01       		.byte	0x1
 2544 01c9 5506     		.2byte	0x655
 2545 01cb AE000000 		.4byte	0xae
 2546 01cf 98010000 		.4byte	.LLST6
 2547 01d3 0D       		.uleb128 0xd
 2548 01d4 BC020000 		.4byte	.LASF34
 2549 01d8 01       		.byte	0x1
 2550 01d9 5606     		.2byte	0x656
 2551 01db 7E000000 		.4byte	0x7e
 2552 01df AB010000 		.4byte	.LLST7
 2553 01e3 0D       		.uleb128 0xd
 2554 01e4 ED030000 		.4byte	.LASF35
 2555 01e8 01       		.byte	0x1
 2556 01e9 5706     		.2byte	0x657
 2557 01eb 8A000000 		.4byte	0x8a
ARM GAS  C:\Users\student\AppData\Local\Temp\ccHj2j2l.s 			page 84


 2558 01ef D4010000 		.4byte	.LLST8
 2559 01f3 0E       		.uleb128 0xe
 2560 01f4 AA000000 		.4byte	.LVL31
 2561 01f8 820B0000 		.4byte	0xb82
 2562 01fc 0F       		.uleb128 0xf
 2563 01fd 01       		.uleb128 0x1
 2564 01fe 50       		.byte	0x50
 2565 01ff 01       		.uleb128 0x1
 2566 0200 30       		.byte	0x30
 2567 0201 00       		.byte	0
 2568 0202 00       		.byte	0
 2569 0203 0B       		.uleb128 0xb
 2570 0204 99000000 		.4byte	.LASF37
 2571 0208 01       		.byte	0x1
 2572 0209 BC06     		.2byte	0x6bc
 2573 020b 00000000 		.4byte	.LFB22
 2574 020f 4C000000 		.4byte	.LFE22-.LFB22
 2575 0213 01       		.uleb128 0x1
 2576 0214 9C       		.byte	0x9c
 2577 0215 66020000 		.4byte	0x266
 2578 0219 0C       		.uleb128 0xc
 2579 021a BB010000 		.4byte	.LASF38
 2580 021e 01       		.byte	0x1
 2581 021f BC06     		.2byte	0x6bc
 2582 0221 72000000 		.4byte	0x72
 2583 0225 E7010000 		.4byte	.LLST9
 2584 0229 0D       		.uleb128 0xd
 2585 022a C4040000 		.4byte	.LASF39
 2586 022e 01       		.byte	0x1
 2587 022f BE06     		.2byte	0x6be
 2588 0231 72000000 		.4byte	0x72
 2589 0235 08020000 		.4byte	.LLST10
 2590 0239 10       		.uleb128 0x10
 2591 023a 08000000 		.4byte	.LVL34
 2592 023e 930B0000 		.4byte	0xb93
 2593 0242 11       		.uleb128 0x11
 2594 0243 28000000 		.4byte	.LVL36
 2595 0247 9E0B0000 		.4byte	0xb9e
 2596 024b 55020000 		.4byte	0x255
 2597 024f 0F       		.uleb128 0xf
 2598 0250 01       		.uleb128 0x1
 2599 0251 50       		.byte	0x50
 2600 0252 01       		.uleb128 0x1
 2601 0253 33       		.byte	0x33
 2602 0254 00       		.byte	0
 2603 0255 0E       		.uleb128 0xe
 2604 0256 3E000000 		.4byte	.LVL37
 2605 025a AF0B0000 		.4byte	0xbaf
 2606 025e 0F       		.uleb128 0xf
 2607 025f 01       		.uleb128 0x1
 2608 0260 50       		.byte	0x50
 2609 0261 02       		.uleb128 0x2
 2610 0262 76       		.byte	0x76
 2611 0263 00       		.sleb128 0
 2612 0264 00       		.byte	0
 2613 0265 00       		.byte	0
 2614 0266 0B       		.uleb128 0xb
ARM GAS  C:\Users\student\AppData\Local\Temp\ccHj2j2l.s 			page 85


 2615 0267 20010000 		.4byte	.LASF40
 2616 026b 01       		.byte	0x1
 2617 026c DA04     		.2byte	0x4da
 2618 026e 00000000 		.4byte	.LFB19
 2619 0272 28030000 		.4byte	.LFE19-.LFB19
 2620 0276 01       		.uleb128 0x1
 2621 0277 9C       		.byte	0x9c
 2622 0278 42040000 		.4byte	0x442
 2623 027c 0C       		.uleb128 0xc
 2624 027d 63040000 		.4byte	.LASF31
 2625 0281 01       		.byte	0x1
 2626 0282 DA04     		.2byte	0x4da
 2627 0284 72000000 		.4byte	0x72
 2628 0288 1B020000 		.4byte	.LLST11
 2629 028c 11       		.uleb128 0x11
 2630 028d 84000000 		.4byte	.LVL41
 2631 0291 03020000 		.4byte	0x203
 2632 0295 A0020000 		.4byte	0x2a0
 2633 0299 0F       		.uleb128 0xf
 2634 029a 01       		.uleb128 0x1
 2635 029b 50       		.byte	0x50
 2636 029c 02       		.uleb128 0x2
 2637 029d 08       		.byte	0x8
 2638 029e 52       		.byte	0x52
 2639 029f 00       		.byte	0
 2640 02a0 11       		.uleb128 0x11
 2641 02a1 A6000000 		.4byte	.LVL42
 2642 02a5 C00B0000 		.4byte	0xbc0
 2643 02a9 B4020000 		.4byte	0x2b4
 2644 02ad 0F       		.uleb128 0xf
 2645 02ae 01       		.uleb128 0x1
 2646 02af 50       		.byte	0x50
 2647 02b0 02       		.uleb128 0x2
 2648 02b1 75       		.byte	0x75
 2649 02b2 00       		.sleb128 0
 2650 02b3 00       		.byte	0
 2651 02b4 11       		.uleb128 0x11
 2652 02b5 B6000000 		.4byte	.LVL43
 2653 02b9 D10B0000 		.4byte	0xbd1
 2654 02bd CE020000 		.4byte	0x2ce
 2655 02c1 0F       		.uleb128 0xf
 2656 02c2 01       		.uleb128 0x1
 2657 02c3 51       		.byte	0x51
 2658 02c4 02       		.uleb128 0x2
 2659 02c5 76       		.byte	0x76
 2660 02c6 00       		.sleb128 0
 2661 02c7 0F       		.uleb128 0xf
 2662 02c8 01       		.uleb128 0x1
 2663 02c9 50       		.byte	0x50
 2664 02ca 02       		.uleb128 0x2
 2665 02cb 08       		.byte	0x8
 2666 02cc 2C       		.byte	0x2c
 2667 02cd 00       		.byte	0
 2668 02ce 11       		.uleb128 0x11
 2669 02cf BE000000 		.4byte	.LVL44
 2670 02d3 E70B0000 		.4byte	0xbe7
 2671 02d7 E8020000 		.4byte	0x2e8
ARM GAS  C:\Users\student\AppData\Local\Temp\ccHj2j2l.s 			page 86


 2672 02db 0F       		.uleb128 0xf
 2673 02dc 01       		.uleb128 0x1
 2674 02dd 51       		.byte	0x51
 2675 02de 02       		.uleb128 0x2
 2676 02df 76       		.byte	0x76
 2677 02e0 00       		.sleb128 0
 2678 02e1 0F       		.uleb128 0xf
 2679 02e2 01       		.uleb128 0x1
 2680 02e3 50       		.byte	0x50
 2681 02e4 02       		.uleb128 0x2
 2682 02e5 08       		.byte	0x8
 2683 02e6 B6       		.byte	0xb6
 2684 02e7 00       		.byte	0
 2685 02e8 11       		.uleb128 0x11
 2686 02e9 C6000000 		.4byte	.LVL45
 2687 02ed FD0B0000 		.4byte	0xbfd
 2688 02f1 FB020000 		.4byte	0x2fb
 2689 02f5 0F       		.uleb128 0xf
 2690 02f6 01       		.uleb128 0x1
 2691 02f7 50       		.byte	0x50
 2692 02f8 01       		.uleb128 0x1
 2693 02f9 4D       		.byte	0x4d
 2694 02fa 00       		.byte	0
 2695 02fb 11       		.uleb128 0x11
 2696 02fc 44010000 		.4byte	.LVL46
 2697 0300 03020000 		.4byte	0x203
 2698 0304 0F030000 		.4byte	0x30f
 2699 0308 0F       		.uleb128 0xf
 2700 0309 01       		.uleb128 0x1
 2701 030a 50       		.byte	0x50
 2702 030b 02       		.uleb128 0x2
 2703 030c 08       		.byte	0x8
 2704 030d 44       		.byte	0x44
 2705 030e 00       		.byte	0
 2706 030f 11       		.uleb128 0x11
 2707 0310 66010000 		.4byte	.LVL47
 2708 0314 C00B0000 		.4byte	0xbc0
 2709 0318 23030000 		.4byte	0x323
 2710 031c 0F       		.uleb128 0xf
 2711 031d 01       		.uleb128 0x1
 2712 031e 50       		.byte	0x50
 2713 031f 02       		.uleb128 0x2
 2714 0320 75       		.byte	0x75
 2715 0321 00       		.sleb128 0
 2716 0322 00       		.byte	0
 2717 0323 11       		.uleb128 0x11
 2718 0324 76010000 		.4byte	.LVL48
 2719 0328 D10B0000 		.4byte	0xbd1
 2720 032c 3C030000 		.4byte	0x33c
 2721 0330 0F       		.uleb128 0xf
 2722 0331 01       		.uleb128 0x1
 2723 0332 51       		.byte	0x51
 2724 0333 02       		.uleb128 0x2
 2725 0334 76       		.byte	0x76
 2726 0335 00       		.sleb128 0
 2727 0336 0F       		.uleb128 0xf
 2728 0337 01       		.uleb128 0x1
ARM GAS  C:\Users\student\AppData\Local\Temp\ccHj2j2l.s 			page 87


 2729 0338 50       		.byte	0x50
 2730 0339 01       		.uleb128 0x1
 2731 033a 38       		.byte	0x38
 2732 033b 00       		.byte	0
 2733 033c 11       		.uleb128 0x11
 2734 033d 7E010000 		.4byte	.LVL49
 2735 0341 E70B0000 		.4byte	0xbe7
 2736 0345 56030000 		.4byte	0x356
 2737 0349 0F       		.uleb128 0xf
 2738 034a 01       		.uleb128 0x1
 2739 034b 51       		.byte	0x51
 2740 034c 02       		.uleb128 0x2
 2741 034d 76       		.byte	0x76
 2742 034e 00       		.sleb128 0
 2743 034f 0F       		.uleb128 0xf
 2744 0350 01       		.uleb128 0x1
 2745 0351 50       		.byte	0x50
 2746 0352 02       		.uleb128 0x2
 2747 0353 08       		.byte	0x8
 2748 0354 25       		.byte	0x25
 2749 0355 00       		.byte	0
 2750 0356 11       		.uleb128 0x11
 2751 0357 86010000 		.4byte	.LVL50
 2752 035b FD0B0000 		.4byte	0xbfd
 2753 035f 69030000 		.4byte	0x369
 2754 0363 0F       		.uleb128 0xf
 2755 0364 01       		.uleb128 0x1
 2756 0365 50       		.byte	0x50
 2757 0366 01       		.uleb128 0x1
 2758 0367 4D       		.byte	0x4d
 2759 0368 00       		.byte	0
 2760 0369 11       		.uleb128 0x11
 2761 036a 04020000 		.4byte	.LVL51
 2762 036e 03020000 		.4byte	0x203
 2763 0372 7D030000 		.4byte	0x37d
 2764 0376 0F       		.uleb128 0xf
 2765 0377 01       		.uleb128 0x1
 2766 0378 50       		.byte	0x50
 2767 0379 02       		.uleb128 0x2
 2768 037a 08       		.byte	0x8
 2769 037b 44       		.byte	0x44
 2770 037c 00       		.byte	0
 2771 037d 11       		.uleb128 0x11
 2772 037e 26020000 		.4byte	.LVL52
 2773 0382 C00B0000 		.4byte	0xbc0
 2774 0386 91030000 		.4byte	0x391
 2775 038a 0F       		.uleb128 0xf
 2776 038b 01       		.uleb128 0x1
 2777 038c 50       		.byte	0x50
 2778 038d 02       		.uleb128 0x2
 2779 038e 75       		.byte	0x75
 2780 038f 00       		.sleb128 0
 2781 0390 00       		.byte	0
 2782 0391 11       		.uleb128 0x11
 2783 0392 36020000 		.4byte	.LVL53
 2784 0396 D10B0000 		.4byte	0xbd1
 2785 039a AA030000 		.4byte	0x3aa
ARM GAS  C:\Users\student\AppData\Local\Temp\ccHj2j2l.s 			page 88


 2786 039e 0F       		.uleb128 0xf
 2787 039f 01       		.uleb128 0x1
 2788 03a0 51       		.byte	0x51
 2789 03a1 02       		.uleb128 0x2
 2790 03a2 76       		.byte	0x76
 2791 03a3 00       		.sleb128 0
 2792 03a4 0F       		.uleb128 0xf
 2793 03a5 01       		.uleb128 0x1
 2794 03a6 50       		.byte	0x50
 2795 03a7 01       		.uleb128 0x1
 2796 03a8 38       		.byte	0x38
 2797 03a9 00       		.byte	0
 2798 03aa 11       		.uleb128 0x11
 2799 03ab 3E020000 		.4byte	.LVL54
 2800 03af E70B0000 		.4byte	0xbe7
 2801 03b3 C4030000 		.4byte	0x3c4
 2802 03b7 0F       		.uleb128 0xf
 2803 03b8 01       		.uleb128 0x1
 2804 03b9 51       		.byte	0x51
 2805 03ba 02       		.uleb128 0x2
 2806 03bb 76       		.byte	0x76
 2807 03bc 00       		.sleb128 0
 2808 03bd 0F       		.uleb128 0xf
 2809 03be 01       		.uleb128 0x1
 2810 03bf 50       		.byte	0x50
 2811 03c0 02       		.uleb128 0x2
 2812 03c1 08       		.byte	0x8
 2813 03c2 25       		.byte	0x25
 2814 03c3 00       		.byte	0
 2815 03c4 11       		.uleb128 0x11
 2816 03c5 46020000 		.4byte	.LVL55
 2817 03c9 FD0B0000 		.4byte	0xbfd
 2818 03cd D7030000 		.4byte	0x3d7
 2819 03d1 0F       		.uleb128 0xf
 2820 03d2 01       		.uleb128 0x1
 2821 03d3 50       		.byte	0x50
 2822 03d4 01       		.uleb128 0x1
 2823 03d5 4D       		.byte	0x4d
 2824 03d6 00       		.byte	0
 2825 03d7 11       		.uleb128 0x11
 2826 03d8 C4020000 		.4byte	.LVL56
 2827 03dc 03020000 		.4byte	0x203
 2828 03e0 EB030000 		.4byte	0x3eb
 2829 03e4 0F       		.uleb128 0xf
 2830 03e5 01       		.uleb128 0x1
 2831 03e6 50       		.byte	0x50
 2832 03e7 02       		.uleb128 0x2
 2833 03e8 08       		.byte	0x8
 2834 03e9 44       		.byte	0x44
 2835 03ea 00       		.byte	0
 2836 03eb 11       		.uleb128 0x11
 2837 03ec E6020000 		.4byte	.LVL57
 2838 03f0 C00B0000 		.4byte	0xbc0
 2839 03f4 FF030000 		.4byte	0x3ff
 2840 03f8 0F       		.uleb128 0xf
 2841 03f9 01       		.uleb128 0x1
 2842 03fa 50       		.byte	0x50
ARM GAS  C:\Users\student\AppData\Local\Temp\ccHj2j2l.s 			page 89


 2843 03fb 02       		.uleb128 0x2
 2844 03fc 74       		.byte	0x74
 2845 03fd 00       		.sleb128 0
 2846 03fe 00       		.byte	0
 2847 03ff 11       		.uleb128 0x11
 2848 0400 F6020000 		.4byte	.LVL58
 2849 0404 D10B0000 		.4byte	0xbd1
 2850 0408 18040000 		.4byte	0x418
 2851 040c 0F       		.uleb128 0xf
 2852 040d 01       		.uleb128 0x1
 2853 040e 51       		.byte	0x51
 2854 040f 02       		.uleb128 0x2
 2855 0410 75       		.byte	0x75
 2856 0411 00       		.sleb128 0
 2857 0412 0F       		.uleb128 0xf
 2858 0413 01       		.uleb128 0x1
 2859 0414 50       		.byte	0x50
 2860 0415 01       		.uleb128 0x1
 2861 0416 38       		.byte	0x38
 2862 0417 00       		.byte	0
 2863 0418 11       		.uleb128 0x11
 2864 0419 FE020000 		.4byte	.LVL59
 2865 041d E70B0000 		.4byte	0xbe7
 2866 0421 32040000 		.4byte	0x432
 2867 0425 0F       		.uleb128 0xf
 2868 0426 01       		.uleb128 0x1
 2869 0427 51       		.byte	0x51
 2870 0428 02       		.uleb128 0x2
 2871 0429 75       		.byte	0x75
 2872 042a 00       		.sleb128 0
 2873 042b 0F       		.uleb128 0xf
 2874 042c 01       		.uleb128 0x1
 2875 042d 50       		.byte	0x50
 2876 042e 02       		.uleb128 0x2
 2877 042f 08       		.byte	0x8
 2878 0430 25       		.byte	0x25
 2879 0431 00       		.byte	0
 2880 0432 0E       		.uleb128 0xe
 2881 0433 06030000 		.4byte	.LVL60
 2882 0437 FD0B0000 		.4byte	0xbfd
 2883 043b 0F       		.uleb128 0xf
 2884 043c 01       		.uleb128 0x1
 2885 043d 50       		.byte	0x50
 2886 043e 01       		.uleb128 0x1
 2887 043f 4D       		.byte	0x4d
 2888 0440 00       		.byte	0
 2889 0441 00       		.byte	0
 2890 0442 12       		.uleb128 0x12
 2891 0443 07010000 		.4byte	.LASF41
 2892 0447 01       		.byte	0x1
 2893 0448 5B       		.byte	0x5b
 2894 0449 00000000 		.4byte	.LFB0
 2895 044d 08010000 		.4byte	.LFE0-.LFB0
 2896 0451 01       		.uleb128 0x1
 2897 0452 9C       		.byte	0x9c
 2898 0453 54050000 		.4byte	0x554
 2899 0457 11       		.uleb128 0x11
ARM GAS  C:\Users\student\AppData\Local\Temp\ccHj2j2l.s 			page 90


 2900 0458 1C000000 		.4byte	.LVL61
 2901 045c 170C0000 		.4byte	0xc17
 2902 0460 6A040000 		.4byte	0x46a
 2903 0464 0F       		.uleb128 0xf
 2904 0465 01       		.uleb128 0x1
 2905 0466 50       		.byte	0x50
 2906 0467 01       		.uleb128 0x1
 2907 0468 40       		.byte	0x40
 2908 0469 00       		.byte	0
 2909 046a 11       		.uleb128 0x11
 2910 046b 22000000 		.4byte	.LVL62
 2911 046f 280C0000 		.4byte	0xc28
 2912 0473 7D040000 		.4byte	0x47d
 2913 0477 0F       		.uleb128 0xf
 2914 0478 01       		.uleb128 0x1
 2915 0479 50       		.byte	0x50
 2916 047a 01       		.uleb128 0x1
 2917 047b 40       		.byte	0x40
 2918 047c 00       		.byte	0
 2919 047d 11       		.uleb128 0x11
 2920 047e 2A000000 		.4byte	.LVL63
 2921 0482 390C0000 		.4byte	0xc39
 2922 0486 95040000 		.4byte	0x495
 2923 048a 0F       		.uleb128 0xf
 2924 048b 01       		.uleb128 0x1
 2925 048c 51       		.byte	0x51
 2926 048d 01       		.uleb128 0x1
 2927 048e 37       		.byte	0x37
 2928 048f 0F       		.uleb128 0xf
 2929 0490 01       		.uleb128 0x1
 2930 0491 50       		.byte	0x50
 2931 0492 01       		.uleb128 0x1
 2932 0493 4D       		.byte	0x4d
 2933 0494 00       		.byte	0
 2934 0495 11       		.uleb128 0x11
 2935 0496 8C000000 		.4byte	.LVL64
 2936 049a 4D010000 		.4byte	0x14d
 2937 049e C2040000 		.4byte	0x4c2
 2938 04a2 0F       		.uleb128 0xf
 2939 04a3 01       		.uleb128 0x1
 2940 04a4 53       		.byte	0x53
 2941 04a5 01       		.uleb128 0x1
 2942 04a6 3C       		.byte	0x3c
 2943 04a7 0F       		.uleb128 0xf
 2944 04a8 01       		.uleb128 0x1
 2945 04a9 52       		.byte	0x52
 2946 04aa 03       		.uleb128 0x3
 2947 04ab 0B       		.byte	0xb
 2948 04ac 0080     		.2byte	0x8000
 2949 04ae 0F       		.uleb128 0xf
 2950 04af 01       		.uleb128 0x1
 2951 04b0 51       		.byte	0x51
 2952 04b1 03       		.uleb128 0x3
 2953 04b2 0B       		.byte	0xb
 2954 04b3 6B8D     		.2byte	0x8d6b
 2955 04b5 0F       		.uleb128 0xf
 2956 04b6 01       		.uleb128 0x1
ARM GAS  C:\Users\student\AppData\Local\Temp\ccHj2j2l.s 			page 91


 2957 04b7 50       		.byte	0x50
 2958 04b8 01       		.uleb128 0x1
 2959 04b9 32       		.byte	0x32
 2960 04ba 0F       		.uleb128 0xf
 2961 04bb 02       		.uleb128 0x2
 2962 04bc 7D       		.byte	0x7d
 2963 04bd 00       		.sleb128 0
 2964 04be 02       		.uleb128 0x2
 2965 04bf 78       		.byte	0x78
 2966 04c0 00       		.sleb128 0
 2967 04c1 00       		.byte	0
 2968 04c2 11       		.uleb128 0x11
 2969 04c3 A0000000 		.4byte	.LVL65
 2970 04c7 4D010000 		.4byte	0x14d
 2971 04cb EF040000 		.4byte	0x4ef
 2972 04cf 0F       		.uleb128 0xf
 2973 04d0 01       		.uleb128 0x1
 2974 04d1 53       		.byte	0x53
 2975 04d2 01       		.uleb128 0x1
 2976 04d3 40       		.byte	0x40
 2977 04d4 0F       		.uleb128 0xf
 2978 04d5 01       		.uleb128 0x1
 2979 04d6 52       		.byte	0x52
 2980 04d7 03       		.uleb128 0x3
 2981 04d8 0B       		.byte	0xb
 2982 04d9 0080     		.2byte	0x8000
 2983 04db 0F       		.uleb128 0xf
 2984 04dc 01       		.uleb128 0x1
 2985 04dd 51       		.byte	0x51
 2986 04de 03       		.uleb128 0x3
 2987 04df 0B       		.byte	0xb
 2988 04e0 DA90     		.2byte	0x90da
 2989 04e2 0F       		.uleb128 0xf
 2990 04e3 01       		.uleb128 0x1
 2991 04e4 50       		.byte	0x50
 2992 04e5 02       		.uleb128 0x2
 2993 04e6 74       		.byte	0x74
 2994 04e7 00       		.sleb128 0
 2995 04e8 0F       		.uleb128 0xf
 2996 04e9 02       		.uleb128 0x2
 2997 04ea 7D       		.byte	0x7d
 2998 04eb 00       		.sleb128 0
 2999 04ec 01       		.uleb128 0x1
 3000 04ed 32       		.byte	0x32
 3001 04ee 00       		.byte	0
 3002 04ef 11       		.uleb128 0x11
 3003 04f0 B4000000 		.4byte	.LVL66
 3004 04f4 4D010000 		.4byte	0x14d
 3005 04f8 1C050000 		.4byte	0x51c
 3006 04fc 0F       		.uleb128 0xf
 3007 04fd 01       		.uleb128 0x1
 3008 04fe 53       		.byte	0x53
 3009 04ff 01       		.uleb128 0x1
 3010 0500 40       		.byte	0x40
 3011 0501 0F       		.uleb128 0xf
 3012 0502 01       		.uleb128 0x1
 3013 0503 52       		.byte	0x52
ARM GAS  C:\Users\student\AppData\Local\Temp\ccHj2j2l.s 			page 92


 3014 0504 03       		.uleb128 0x3
 3015 0505 0B       		.byte	0xb
 3016 0506 0080     		.2byte	0x8000
 3017 0508 0F       		.uleb128 0xf
 3018 0509 01       		.uleb128 0x1
 3019 050a 51       		.byte	0x51
 3020 050b 03       		.uleb128 0x3
 3021 050c 0B       		.byte	0xb
 3022 050d DA90     		.2byte	0x90da
 3023 050f 0F       		.uleb128 0xf
 3024 0510 01       		.uleb128 0x1
 3025 0511 50       		.byte	0x50
 3026 0512 02       		.uleb128 0x2
 3027 0513 74       		.byte	0x74
 3028 0514 00       		.sleb128 0
 3029 0515 0F       		.uleb128 0xf
 3030 0516 02       		.uleb128 0x2
 3031 0517 7D       		.byte	0x7d
 3032 0518 00       		.sleb128 0
 3033 0519 01       		.uleb128 0x1
 3034 051a 33       		.byte	0x33
 3035 051b 00       		.byte	0
 3036 051c 11       		.uleb128 0x11
 3037 051d C6000000 		.4byte	.LVL67
 3038 0521 4D010000 		.4byte	0x14d
 3039 0525 4A050000 		.4byte	0x54a
 3040 0529 0F       		.uleb128 0xf
 3041 052a 01       		.uleb128 0x1
 3042 052b 53       		.byte	0x53
 3043 052c 01       		.uleb128 0x1
 3044 052d 40       		.byte	0x40
 3045 052e 0F       		.uleb128 0xf
 3046 052f 01       		.uleb128 0x1
 3047 0530 52       		.byte	0x52
 3048 0531 03       		.uleb128 0x3
 3049 0532 0B       		.byte	0xb
 3050 0533 0080     		.2byte	0x8000
 3051 0535 0F       		.uleb128 0xf
 3052 0536 01       		.uleb128 0x1
 3053 0537 51       		.byte	0x51
 3054 0538 03       		.uleb128 0x3
 3055 0539 0B       		.byte	0xb
 3056 053a DA90     		.2byte	0x90da
 3057 053c 0F       		.uleb128 0xf
 3058 053d 01       		.uleb128 0x1
 3059 053e 50       		.byte	0x50
 3060 053f 02       		.uleb128 0x2
 3061 0540 74       		.byte	0x74
 3062 0541 00       		.sleb128 0
 3063 0542 0F       		.uleb128 0xf
 3064 0543 02       		.uleb128 0x2
 3065 0544 7D       		.byte	0x7d
 3066 0545 00       		.sleb128 0
 3067 0546 02       		.uleb128 0x2
 3068 0547 77       		.byte	0x77
 3069 0548 00       		.sleb128 0
 3070 0549 00       		.byte	0
ARM GAS  C:\Users\student\AppData\Local\Temp\ccHj2j2l.s 			page 93


 3071 054a 10       		.uleb128 0x10
 3072 054b E6000000 		.4byte	.LVL68
 3073 054f 66020000 		.4byte	0x266
 3074 0553 00       		.byte	0
 3075 0554 12       		.uleb128 0x12
 3076 0555 E6050000 		.4byte	.LASF42
 3077 0559 01       		.byte	0x1
 3078 055a B8       		.byte	0xb8
 3079 055b 00000000 		.4byte	.LFB1
 3080 055f D8000000 		.4byte	.LFE1-.LFB1
 3081 0563 01       		.uleb128 0x1
 3082 0564 9C       		.byte	0x9c
 3083 0565 B0050000 		.4byte	0x5b0
 3084 0569 13       		.uleb128 0x13
 3085 056a 63040000 		.4byte	.LASF31
 3086 056e 01       		.byte	0x1
 3087 056f BA       		.byte	0xba
 3088 0570 72000000 		.4byte	0x72
 3089 0574 14       		.uleb128 0x14
 3090 0575 C4040000 		.4byte	.LASF39
 3091 0579 01       		.byte	0x1
 3092 057a BB       		.byte	0xbb
 3093 057b 72000000 		.4byte	0x72
 3094 057f 3C020000 		.4byte	.LLST12
 3095 0583 10       		.uleb128 0x10
 3096 0584 06000000 		.4byte	.LVL69
 3097 0588 930B0000 		.4byte	0xb93
 3098 058c 11       		.uleb128 0x11
 3099 058d 54000000 		.4byte	.LVL72
 3100 0591 9E0B0000 		.4byte	0xb9e
 3101 0595 9F050000 		.4byte	0x59f
 3102 0599 0F       		.uleb128 0xf
 3103 059a 01       		.uleb128 0x1
 3104 059b 50       		.byte	0x50
 3105 059c 01       		.uleb128 0x1
 3106 059d 33       		.byte	0x33
 3107 059e 00       		.byte	0
 3108 059f 0E       		.uleb128 0xe
 3109 05a0 B0000000 		.4byte	.LVL73
 3110 05a4 AF0B0000 		.4byte	0xbaf
 3111 05a8 0F       		.uleb128 0xf
 3112 05a9 01       		.uleb128 0x1
 3113 05aa 50       		.byte	0x50
 3114 05ab 02       		.uleb128 0x2
 3115 05ac 76       		.byte	0x76
 3116 05ad 00       		.sleb128 0
 3117 05ae 00       		.byte	0
 3118 05af 00       		.byte	0
 3119 05b0 15       		.uleb128 0x15
 3120 05b1 44010000 		.4byte	.LASF43
 3121 05b5 01       		.byte	0x1
 3122 05b6 4901     		.2byte	0x149
 3123 05b8 00000000 		.4byte	.LFB2
 3124 05bc 28000000 		.4byte	.LFE2-.LFB2
 3125 05c0 01       		.uleb128 0x1
 3126 05c1 9C       		.byte	0x9c
 3127 05c2 D9050000 		.4byte	0x5d9
ARM GAS  C:\Users\student\AppData\Local\Temp\ccHj2j2l.s 			page 94


 3128 05c6 10       		.uleb128 0x10
 3129 05c7 16000000 		.4byte	.LVL75
 3130 05cb 42040000 		.4byte	0x442
 3131 05cf 10       		.uleb128 0x10
 3132 05d0 20000000 		.4byte	.LVL76
 3133 05d4 54050000 		.4byte	0x554
 3134 05d8 00       		.byte	0
 3135 05d9 15       		.uleb128 0x15
 3136 05da 85040000 		.4byte	.LASF44
 3137 05de 01       		.byte	0x1
 3138 05df 6A01     		.2byte	0x16a
 3139 05e1 00000000 		.4byte	.LFB3
 3140 05e5 E4000000 		.4byte	.LFE3-.LFB3
 3141 05e9 01       		.uleb128 0x1
 3142 05ea 9C       		.byte	0x9c
 3143 05eb 2C060000 		.4byte	0x62c
 3144 05ef 0D       		.uleb128 0xd
 3145 05f0 C4040000 		.4byte	.LASF39
 3146 05f4 01       		.byte	0x1
 3147 05f5 6C01     		.2byte	0x16c
 3148 05f7 72000000 		.4byte	0x72
 3149 05fb 4F020000 		.4byte	.LLST13
 3150 05ff 10       		.uleb128 0x10
 3151 0600 06000000 		.4byte	.LVL77
 3152 0604 930B0000 		.4byte	0xb93
 3153 0608 11       		.uleb128 0x11
 3154 0609 4C000000 		.4byte	.LVL79
 3155 060d 9E0B0000 		.4byte	0xb9e
 3156 0611 1B060000 		.4byte	0x61b
 3157 0615 0F       		.uleb128 0xf
 3158 0616 01       		.uleb128 0x1
 3159 0617 50       		.byte	0x50
 3160 0618 01       		.uleb128 0x1
 3161 0619 33       		.byte	0x33
 3162 061a 00       		.byte	0
 3163 061b 0E       		.uleb128 0xe
 3164 061c CC000000 		.4byte	.LVL80
 3165 0620 AF0B0000 		.4byte	0xbaf
 3166 0624 0F       		.uleb128 0xf
 3167 0625 01       		.uleb128 0x1
 3168 0626 50       		.byte	0x50
 3169 0627 02       		.uleb128 0x2
 3170 0628 76       		.byte	0x76
 3171 0629 00       		.sleb128 0
 3172 062a 00       		.byte	0
 3173 062b 00       		.byte	0
 3174 062c 15       		.uleb128 0x15
 3175 062d FC050000 		.4byte	.LASF45
 3176 0631 01       		.byte	0x1
 3177 0632 AD01     		.2byte	0x1ad
 3178 0634 00000000 		.4byte	.LFB4
 3179 0638 18000000 		.4byte	.LFE4-.LFB4
 3180 063c 01       		.uleb128 0x1
 3181 063d 9C       		.byte	0x9c
 3182 063e 63060000 		.4byte	0x663
 3183 0642 0C       		.uleb128 0xc
 3184 0643 99030000 		.4byte	.LASF46
ARM GAS  C:\Users\student\AppData\Local\Temp\ccHj2j2l.s 			page 95


 3185 0647 01       		.byte	0x1
 3186 0648 AD01     		.2byte	0x1ad
 3187 064a 72000000 		.4byte	0x72
 3188 064e 62020000 		.4byte	.LLST14
 3189 0652 0D       		.uleb128 0xd
 3190 0653 F5050000 		.4byte	.LASF47
 3191 0657 01       		.byte	0x1
 3192 0658 AF01     		.2byte	0x1af
 3193 065a 72000000 		.4byte	0x72
 3194 065e 83020000 		.4byte	.LLST15
 3195 0662 00       		.byte	0
 3196 0663 15       		.uleb128 0x15
 3197 0664 69030000 		.4byte	.LASF48
 3198 0668 01       		.byte	0x1
 3199 0669 D101     		.2byte	0x1d1
 3200 066b 00000000 		.4byte	.LFB5
 3201 066f 18000000 		.4byte	.LFE5-.LFB5
 3202 0673 01       		.uleb128 0x1
 3203 0674 9C       		.byte	0x9c
 3204 0675 9A060000 		.4byte	0x69a
 3205 0679 0C       		.uleb128 0xc
 3206 067a 7E030000 		.4byte	.LASF49
 3207 067e 01       		.byte	0x1
 3208 067f D101     		.2byte	0x1d1
 3209 0681 72000000 		.4byte	0x72
 3210 0685 A1020000 		.4byte	.LLST16
 3211 0689 0D       		.uleb128 0xd
 3212 068a F5050000 		.4byte	.LASF47
 3213 068e 01       		.byte	0x1
 3214 068f D301     		.2byte	0x1d3
 3215 0691 72000000 		.4byte	0x72
 3216 0695 C2020000 		.4byte	.LLST17
 3217 0699 00       		.byte	0
 3218 069a 16       		.uleb128 0x16
 3219 069b 61000000 		.4byte	.LASF53
 3220 069f 01       		.byte	0x1
 3221 06a0 F901     		.2byte	0x1f9
 3222 06a2 72000000 		.4byte	0x72
 3223 06a6 00000000 		.4byte	.LFB6
 3224 06aa 74000000 		.4byte	.LFE6-.LFB6
 3225 06ae 01       		.uleb128 0x1
 3226 06af 9C       		.byte	0x9c
 3227 06b0 F5060000 		.4byte	0x6f5
 3228 06b4 0C       		.uleb128 0xc
 3229 06b5 BE050000 		.4byte	.LASF50
 3230 06b9 01       		.byte	0x1
 3231 06ba F901     		.2byte	0x1f9
 3232 06bc BA000000 		.4byte	0xba
 3233 06c0 E0020000 		.4byte	.LLST18
 3234 06c4 0D       		.uleb128 0xd
 3235 06c5 F5050000 		.4byte	.LASF47
 3236 06c9 01       		.byte	0x1
 3237 06ca FB01     		.2byte	0x1fb
 3238 06cc 7E000000 		.4byte	0x7e
 3239 06d0 0E030000 		.4byte	.LLST19
 3240 06d4 0D       		.uleb128 0xd
 3241 06d5 19050000 		.4byte	.LASF51
ARM GAS  C:\Users\student\AppData\Local\Temp\ccHj2j2l.s 			page 96


 3242 06d9 01       		.byte	0x1
 3243 06da FC01     		.2byte	0x1fc
 3244 06dc 72000000 		.4byte	0x72
 3245 06e0 46030000 		.4byte	.LLST20
 3246 06e4 0D       		.uleb128 0xd
 3247 06e5 9A040000 		.4byte	.LASF52
 3248 06e9 01       		.byte	0x1
 3249 06ea FD01     		.2byte	0x1fd
 3250 06ec BA000000 		.4byte	0xba
 3251 06f0 65030000 		.4byte	.LLST21
 3252 06f4 00       		.byte	0
 3253 06f5 17       		.uleb128 0x17
 3254 06f6 88000000 		.4byte	.LASF54
 3255 06fa 01       		.byte	0x1
 3256 06fb 2802     		.2byte	0x228
 3257 06fd 7E000000 		.4byte	0x7e
 3258 0701 00000000 		.4byte	.LFB7
 3259 0705 24000000 		.4byte	.LFE7-.LFB7
 3260 0709 01       		.uleb128 0x1
 3261 070a 9C       		.byte	0x9c
 3262 070b 30070000 		.4byte	0x730
 3263 070f 0D       		.uleb128 0xd
 3264 0710 03050000 		.4byte	.LASF55
 3265 0714 01       		.byte	0x1
 3266 0715 2A02     		.2byte	0x22a
 3267 0717 72000000 		.4byte	0x72
 3268 071b A4030000 		.4byte	.LLST22
 3269 071f 0D       		.uleb128 0xd
 3270 0720 BC020000 		.4byte	.LASF34
 3271 0724 01       		.byte	0x1
 3272 0725 2B02     		.2byte	0x22b
 3273 0727 7E000000 		.4byte	0x7e
 3274 072b B7030000 		.4byte	.LLST23
 3275 072f 00       		.byte	0
 3276 0730 18       		.uleb128 0x18
 3277 0731 F5030000 		.4byte	.LASF56
 3278 0735 01       		.byte	0x1
 3279 0736 4A02     		.2byte	0x24a
 3280 0738 00000000 		.4byte	.LFB8
 3281 073c 10000000 		.4byte	.LFE8-.LFB8
 3282 0740 01       		.uleb128 0x1
 3283 0741 9C       		.byte	0x9c
 3284 0742 18       		.uleb128 0x18
 3285 0743 FF020000 		.4byte	.LASF57
 3286 0747 01       		.byte	0x1
 3287 0748 6102     		.2byte	0x261
 3288 074a 00000000 		.4byte	.LFB9
 3289 074e 10000000 		.4byte	.LFE9-.LFB9
 3290 0752 01       		.uleb128 0x1
 3291 0753 9C       		.byte	0x9c
 3292 0754 17       		.uleb128 0x17
 3293 0755 28020000 		.4byte	.LASF58
 3294 0759 01       		.byte	0x1
 3295 075a 8402     		.2byte	0x284
 3296 075c 72000000 		.4byte	0x72
 3297 0760 00000000 		.4byte	.LFB10
 3298 0764 30000000 		.4byte	.LFE10-.LFB10
ARM GAS  C:\Users\student\AppData\Local\Temp\ccHj2j2l.s 			page 97


 3299 0768 01       		.uleb128 0x1
 3300 0769 9C       		.byte	0x9c
 3301 076a 8F070000 		.4byte	0x78f
 3302 076e 0C       		.uleb128 0xc
 3303 076f D2010000 		.4byte	.LASF59
 3304 0773 01       		.byte	0x1
 3305 0774 8402     		.2byte	0x284
 3306 0776 72000000 		.4byte	0x72
 3307 077a D5030000 		.4byte	.LLST24
 3308 077e 0D       		.uleb128 0xd
 3309 077f 19050000 		.4byte	.LASF51
 3310 0783 01       		.byte	0x1
 3311 0784 8602     		.2byte	0x286
 3312 0786 72000000 		.4byte	0x72
 3313 078a F6030000 		.4byte	.LLST25
 3314 078e 00       		.byte	0
 3315 078f 17       		.uleb128 0x17
 3316 0790 47030000 		.4byte	.LASF60
 3317 0794 01       		.byte	0x1
 3318 0795 B302     		.2byte	0x2b3
 3319 0797 96000000 		.4byte	0x96
 3320 079b 00000000 		.4byte	.LFB11
 3321 079f 48000000 		.4byte	.LFE11-.LFB11
 3322 07a3 01       		.uleb128 0x1
 3323 07a4 9C       		.byte	0x9c
 3324 07a5 C8070000 		.4byte	0x7c8
 3325 07a9 19       		.uleb128 0x19
 3326 07aa 12060000 		.4byte	.LASF61
 3327 07ae 01       		.byte	0x1
 3328 07af B502     		.2byte	0x2b5
 3329 07b1 96000000 		.4byte	0x96
 3330 07b5 01       		.uleb128 0x1
 3331 07b6 50       		.byte	0x50
 3332 07b7 0D       		.uleb128 0xd
 3333 07b8 7E030000 		.4byte	.LASF49
 3334 07bc 01       		.byte	0x1
 3335 07bd B602     		.2byte	0x2b6
 3336 07bf 72000000 		.4byte	0x72
 3337 07c3 14040000 		.4byte	.LLST26
 3338 07c7 00       		.byte	0
 3339 07c8 17       		.uleb128 0x17
 3340 07c9 4D000000 		.4byte	.LASF62
 3341 07cd 01       		.byte	0x1
 3342 07ce E902     		.2byte	0x2e9
 3343 07d0 A2000000 		.4byte	0xa2
 3344 07d4 00000000 		.4byte	.LFB12
 3345 07d8 50000000 		.4byte	.LFE12-.LFB12
 3346 07dc 01       		.uleb128 0x1
 3347 07dd 9C       		.byte	0x9c
 3348 07de 03080000 		.4byte	0x803
 3349 07e2 0D       		.uleb128 0xd
 3350 07e3 12060000 		.4byte	.LASF61
 3351 07e7 01       		.byte	0x1
 3352 07e8 EB02     		.2byte	0x2eb
 3353 07ea 7E000000 		.4byte	0x7e
 3354 07ee 32040000 		.4byte	.LLST27
 3355 07f2 0D       		.uleb128 0xd
ARM GAS  C:\Users\student\AppData\Local\Temp\ccHj2j2l.s 			page 98


 3356 07f3 7E030000 		.4byte	.LASF49
 3357 07f7 01       		.byte	0x1
 3358 07f8 EC02     		.2byte	0x2ec
 3359 07fa 72000000 		.4byte	0x72
 3360 07fe 5B040000 		.4byte	.LLST28
 3361 0802 00       		.byte	0
 3362 0803 17       		.uleb128 0x17
 3363 0804 00020000 		.4byte	.LASF63
 3364 0808 01       		.byte	0x1
 3365 0809 2503     		.2byte	0x325
 3366 080b AE000000 		.4byte	0xae
 3367 080f 00000000 		.4byte	.LFB13
 3368 0813 6C000000 		.4byte	.LFE13-.LFB13
 3369 0817 01       		.uleb128 0x1
 3370 0818 9C       		.byte	0x9c
 3371 0819 3E080000 		.4byte	0x83e
 3372 081d 0D       		.uleb128 0xd
 3373 081e 12060000 		.4byte	.LASF61
 3374 0822 01       		.byte	0x1
 3375 0823 2703     		.2byte	0x327
 3376 0825 8A000000 		.4byte	0x8a
 3377 0829 79040000 		.4byte	.LLST29
 3378 082d 0D       		.uleb128 0xd
 3379 082e 7E030000 		.4byte	.LASF49
 3380 0832 01       		.byte	0x1
 3381 0833 2803     		.2byte	0x328
 3382 0835 72000000 		.4byte	0x72
 3383 0839 DA040000 		.4byte	.LLST30
 3384 083d 00       		.byte	0
 3385 083e 15       		.uleb128 0x15
 3386 083f C6020000 		.4byte	.LASF64
 3387 0843 01       		.byte	0x1
 3388 0844 8203     		.2byte	0x382
 3389 0846 00000000 		.4byte	.LFB14
 3390 084a 0C000000 		.4byte	.LFE14-.LFB14
 3391 084e 01       		.uleb128 0x1
 3392 084f 9C       		.byte	0x9c
 3393 0850 63080000 		.4byte	0x863
 3394 0854 1A       		.uleb128 0x1a
 3395 0855 A3040000 		.4byte	.LASF65
 3396 0859 01       		.byte	0x1
 3397 085a 8203     		.2byte	0x382
 3398 085c AE000000 		.4byte	0xae
 3399 0860 01       		.uleb128 0x1
 3400 0861 50       		.byte	0x50
 3401 0862 00       		.byte	0
 3402 0863 15       		.uleb128 0x15
 3403 0864 CE000000 		.4byte	.LASF66
 3404 0868 01       		.byte	0x1
 3405 0869 A503     		.2byte	0x3a5
 3406 086b 00000000 		.4byte	.LFB15
 3407 086f 0C000000 		.4byte	.LFE15-.LFB15
 3408 0873 01       		.uleb128 0x1
 3409 0874 9C       		.byte	0x9c
 3410 0875 88080000 		.4byte	0x888
 3411 0879 1A       		.uleb128 0x1a
 3412 087a 07000000 		.4byte	.LASF67
ARM GAS  C:\Users\student\AppData\Local\Temp\ccHj2j2l.s 			page 99


 3413 087e 01       		.byte	0x1
 3414 087f A503     		.2byte	0x3a5
 3415 0881 AE000000 		.4byte	0xae
 3416 0885 01       		.uleb128 0x1
 3417 0886 50       		.byte	0x50
 3418 0887 00       		.byte	0
 3419 0888 17       		.uleb128 0x17
 3420 0889 A4020000 		.4byte	.LASF68
 3421 088d 01       		.byte	0x1
 3422 088e C003     		.2byte	0x3c0
 3423 0890 A2000000 		.4byte	0xa2
 3424 0894 00000000 		.4byte	.LFB16
 3425 0898 24000000 		.4byte	.LFE16-.LFB16
 3426 089c 01       		.uleb128 0x1
 3427 089d 9C       		.byte	0x9c
 3428 089e C1080000 		.4byte	0x8c1
 3429 08a2 0C       		.uleb128 0xc
 3430 08a3 AA040000 		.4byte	.LASF69
 3431 08a7 01       		.byte	0x1
 3432 08a8 C003     		.2byte	0x3c0
 3433 08aa AE000000 		.4byte	0xae
 3434 08ae 03050000 		.4byte	.LLST31
 3435 08b2 19       		.uleb128 0x19
 3436 08b3 EC020000 		.4byte	.LASF70
 3437 08b7 01       		.byte	0x1
 3438 08b8 C303     		.2byte	0x3c3
 3439 08ba A2000000 		.4byte	0xa2
 3440 08be 01       		.uleb128 0x1
 3441 08bf 50       		.byte	0x50
 3442 08c0 00       		.byte	0
 3443 08c1 16       		.uleb128 0x16
 3444 08c2 0A040000 		.4byte	.LASF71
 3445 08c6 01       		.byte	0x1
 3446 08c7 FD03     		.2byte	0x3fd
 3447 08c9 BA000000 		.4byte	0xba
 3448 08cd 00000000 		.4byte	.LFB17
 3449 08d1 28000000 		.4byte	.LFE17-.LFB17
 3450 08d5 01       		.uleb128 0x1
 3451 08d6 9C       		.byte	0x9c
 3452 08d7 FA080000 		.4byte	0x8fa
 3453 08db 0C       		.uleb128 0xc
 3454 08dc AA040000 		.4byte	.LASF69
 3455 08e0 01       		.byte	0x1
 3456 08e1 FD03     		.2byte	0x3fd
 3457 08e3 AE000000 		.4byte	0xae
 3458 08e7 21050000 		.4byte	.LLST32
 3459 08eb 19       		.uleb128 0x19
 3460 08ec 52010000 		.4byte	.LASF72
 3461 08f0 01       		.byte	0x1
 3462 08f1 0004     		.2byte	0x400
 3463 08f3 BA000000 		.4byte	0xba
 3464 08f7 01       		.uleb128 0x1
 3465 08f8 50       		.byte	0x50
 3466 08f9 00       		.byte	0
 3467 08fa 17       		.uleb128 0x17
 3468 08fb 30000000 		.4byte	.LASF73
 3469 08ff 01       		.byte	0x1
ARM GAS  C:\Users\student\AppData\Local\Temp\ccHj2j2l.s 			page 100


 3470 0900 3F04     		.2byte	0x43f
 3471 0902 AE000000 		.4byte	0xae
 3472 0906 00000000 		.4byte	.LFB18
 3473 090a 78000000 		.4byte	.LFE18-.LFB18
 3474 090e 01       		.uleb128 0x1
 3475 090f 9C       		.byte	0x9c
 3476 0910 65090000 		.4byte	0x965
 3477 0914 0C       		.uleb128 0xc
 3478 0915 AA040000 		.4byte	.LASF69
 3479 0919 01       		.byte	0x1
 3480 091a 3F04     		.2byte	0x43f
 3481 091c AE000000 		.4byte	0xae
 3482 0920 4F050000 		.4byte	.LLST33
 3483 0924 0D       		.uleb128 0xd
 3484 0925 21020000 		.4byte	.LASF74
 3485 0929 01       		.byte	0x1
 3486 092a 4204     		.2byte	0x442
 3487 092c AE000000 		.4byte	0xae
 3488 0930 70050000 		.4byte	.LLST34
 3489 0934 0D       		.uleb128 0xd
 3490 0935 2C040000 		.4byte	.LASF75
 3491 0939 01       		.byte	0x1
 3492 093a 4304     		.2byte	0x443
 3493 093c AE000000 		.4byte	0xae
 3494 0940 93050000 		.4byte	.LLST35
 3495 0944 0D       		.uleb128 0xd
 3496 0945 32040000 		.4byte	.LASF76
 3497 0949 01       		.byte	0x1
 3498 094a 4404     		.2byte	0x444
 3499 094c AE000000 		.4byte	0xae
 3500 0950 B6050000 		.4byte	.LLST36
 3501 0954 0D       		.uleb128 0xd
 3502 0955 21040000 		.4byte	.LASF30
 3503 0959 01       		.byte	0x1
 3504 095a 4504     		.2byte	0x445
 3505 095c 72000000 		.4byte	0x72
 3506 0960 D5050000 		.4byte	.LLST37
 3507 0964 00       		.byte	0
 3508 0965 15       		.uleb128 0x15
 3509 0966 58010000 		.4byte	.LASF77
 3510 096a 01       		.byte	0x1
 3511 096b 1006     		.2byte	0x610
 3512 096d 00000000 		.4byte	.LFB20
 3513 0971 64000000 		.4byte	.LFE20-.LFB20
 3514 0975 01       		.uleb128 0x1
 3515 0976 9C       		.byte	0x9c
 3516 0977 DA090000 		.4byte	0x9da
 3517 097b 0C       		.uleb128 0xc
 3518 097c 63040000 		.4byte	.LASF31
 3519 0980 01       		.byte	0x1
 3520 0981 1006     		.2byte	0x610
 3521 0983 72000000 		.4byte	0x72
 3522 0987 E8050000 		.4byte	.LLST38
 3523 098b 0C       		.uleb128 0xc
 3524 098c 92040000 		.4byte	.LASF78
 3525 0990 01       		.byte	0x1
 3526 0991 1006     		.2byte	0x610
ARM GAS  C:\Users\student\AppData\Local\Temp\ccHj2j2l.s 			page 101


 3527 0993 72000000 		.4byte	0x72
 3528 0997 22060000 		.4byte	.LLST39
 3529 099b 10       		.uleb128 0x10
 3530 099c 22000000 		.4byte	.LVL166
 3531 09a0 D9050000 		.4byte	0x5d9
 3532 09a4 11       		.uleb128 0x11
 3533 09a5 28000000 		.4byte	.LVL167
 3534 09a9 66020000 		.4byte	0x266
 3535 09ad B8090000 		.4byte	0x9b8
 3536 09b1 0F       		.uleb128 0xf
 3537 09b2 01       		.uleb128 0x1
 3538 09b3 50       		.byte	0x50
 3539 09b4 02       		.uleb128 0x2
 3540 09b5 74       		.byte	0x74
 3541 09b6 00       		.sleb128 0
 3542 09b7 00       		.byte	0
 3543 09b8 10       		.uleb128 0x10
 3544 09b9 46000000 		.4byte	.LVL168
 3545 09bd B0050000 		.4byte	0x5b0
 3546 09c1 10       		.uleb128 0x10
 3547 09c2 4A000000 		.4byte	.LVL169
 3548 09c6 30070000 		.4byte	0x730
 3549 09ca 0E       		.uleb128 0xe
 3550 09cb 52000000 		.4byte	.LVL172
 3551 09cf 820B0000 		.4byte	0xb82
 3552 09d3 0F       		.uleb128 0xf
 3553 09d4 01       		.uleb128 0x1
 3554 09d5 50       		.byte	0x50
 3555 09d6 01       		.uleb128 0x1
 3556 09d7 30       		.byte	0x30
 3557 09d8 00       		.byte	0
 3558 09d9 00       		.byte	0
 3559 09da 17       		.uleb128 0x17
 3560 09db 8A010000 		.4byte	.LASF79
 3561 09df 01       		.byte	0x1
 3562 09e0 E206     		.2byte	0x6e2
 3563 09e2 96000000 		.4byte	0x96
 3564 09e6 00000000 		.4byte	.LFB23
 3565 09ea 28000000 		.4byte	.LFE23-.LFB23
 3566 09ee 01       		.uleb128 0x1
 3567 09ef 9C       		.byte	0x9c
 3568 09f0 330A0000 		.4byte	0xa33
 3569 09f4 0D       		.uleb128 0xd
 3570 09f5 12060000 		.4byte	.LASF61
 3571 09f9 01       		.byte	0x1
 3572 09fa E406     		.2byte	0x6e4
 3573 09fc 96000000 		.4byte	0x96
 3574 0a00 5C060000 		.4byte	.LLST40
 3575 0a04 10       		.uleb128 0x10
 3576 0a05 10000000 		.4byte	.LVL173
 3577 0a09 30070000 		.4byte	0x730
 3578 0a0d 11       		.uleb128 0x11
 3579 0a0e 16000000 		.4byte	.LVL174
 3580 0a12 54070000 		.4byte	0x754
 3581 0a16 200A0000 		.4byte	0xa20
 3582 0a1a 0F       		.uleb128 0xf
 3583 0a1b 01       		.uleb128 0x1
ARM GAS  C:\Users\student\AppData\Local\Temp\ccHj2j2l.s 			page 102


 3584 0a1c 50       		.byte	0x50
 3585 0a1d 01       		.uleb128 0x1
 3586 0a1e 30       		.byte	0x30
 3587 0a1f 00       		.byte	0
 3588 0a20 10       		.uleb128 0x10
 3589 0a21 1A000000 		.4byte	.LVL175
 3590 0a25 8F070000 		.4byte	0x78f
 3591 0a29 10       		.uleb128 0x10
 3592 0a2a 20000000 		.4byte	.LVL177
 3593 0a2e 42070000 		.4byte	0x742
 3594 0a32 00       		.byte	0
 3595 0a33 17       		.uleb128 0x17
 3596 0a34 0A050000 		.4byte	.LASF80
 3597 0a38 01       		.byte	0x1
 3598 0a39 0307     		.2byte	0x703
 3599 0a3b A2000000 		.4byte	0xa2
 3600 0a3f 00000000 		.4byte	.LFB24
 3601 0a43 28000000 		.4byte	.LFE24-.LFB24
 3602 0a47 01       		.uleb128 0x1
 3603 0a48 9C       		.byte	0x9c
 3604 0a49 8C0A0000 		.4byte	0xa8c
 3605 0a4d 0D       		.uleb128 0xd
 3606 0a4e 12060000 		.4byte	.LASF61
 3607 0a52 01       		.byte	0x1
 3608 0a53 0507     		.2byte	0x705
 3609 0a55 A2000000 		.4byte	0xa2
 3610 0a59 6F060000 		.4byte	.LLST41
 3611 0a5d 10       		.uleb128 0x10
 3612 0a5e 10000000 		.4byte	.LVL179
 3613 0a62 30070000 		.4byte	0x730
 3614 0a66 11       		.uleb128 0x11
 3615 0a67 16000000 		.4byte	.LVL180
 3616 0a6b 54070000 		.4byte	0x754
 3617 0a6f 790A0000 		.4byte	0xa79
 3618 0a73 0F       		.uleb128 0xf
 3619 0a74 01       		.uleb128 0x1
 3620 0a75 50       		.byte	0x50
 3621 0a76 01       		.uleb128 0x1
 3622 0a77 30       		.byte	0x30
 3623 0a78 00       		.byte	0
 3624 0a79 10       		.uleb128 0x10
 3625 0a7a 1A000000 		.4byte	.LVL181
 3626 0a7e C8070000 		.4byte	0x7c8
 3627 0a82 10       		.uleb128 0x10
 3628 0a83 20000000 		.4byte	.LVL183
 3629 0a87 42070000 		.4byte	0x742
 3630 0a8b 00       		.byte	0
 3631 0a8c 17       		.uleb128 0x17
 3632 0a8d BF000000 		.4byte	.LASF81
 3633 0a91 01       		.byte	0x1
 3634 0a92 2407     		.2byte	0x724
 3635 0a94 AE000000 		.4byte	0xae
 3636 0a98 00000000 		.4byte	.LFB25
 3637 0a9c 28000000 		.4byte	.LFE25-.LFB25
 3638 0aa0 01       		.uleb128 0x1
 3639 0aa1 9C       		.byte	0x9c
 3640 0aa2 E50A0000 		.4byte	0xae5
ARM GAS  C:\Users\student\AppData\Local\Temp\ccHj2j2l.s 			page 103


 3641 0aa6 0D       		.uleb128 0xd
 3642 0aa7 12060000 		.4byte	.LASF61
 3643 0aab 01       		.byte	0x1
 3644 0aac 2607     		.2byte	0x726
 3645 0aae AE000000 		.4byte	0xae
 3646 0ab2 82060000 		.4byte	.LLST42
 3647 0ab6 10       		.uleb128 0x10
 3648 0ab7 10000000 		.4byte	.LVL185
 3649 0abb 30070000 		.4byte	0x730
 3650 0abf 11       		.uleb128 0x11
 3651 0ac0 16000000 		.4byte	.LVL186
 3652 0ac4 54070000 		.4byte	0x754
 3653 0ac8 D20A0000 		.4byte	0xad2
 3654 0acc 0F       		.uleb128 0xf
 3655 0acd 01       		.uleb128 0x1
 3656 0ace 50       		.byte	0x50
 3657 0acf 01       		.uleb128 0x1
 3658 0ad0 30       		.byte	0x30
 3659 0ad1 00       		.byte	0
 3660 0ad2 10       		.uleb128 0x10
 3661 0ad3 1A000000 		.4byte	.LVL187
 3662 0ad7 03080000 		.4byte	0x803
 3663 0adb 10       		.uleb128 0x10
 3664 0adc 20000000 		.4byte	.LVL189
 3665 0ae0 42070000 		.4byte	0x742
 3666 0ae4 00       		.byte	0
 3667 0ae5 1B       		.uleb128 0x1b
 3668 0ae6 42010000 		.4byte	0x142
 3669 0aea F50A0000 		.4byte	0xaf5
 3670 0aee 1C       		.uleb128 0x1c
 3671 0aef 1A010000 		.4byte	0x11a
 3672 0af3 03       		.byte	0x3
 3673 0af4 00       		.byte	0
 3674 0af5 1D       		.uleb128 0x1d
 3675 0af6 E0030000 		.4byte	.LASF82
 3676 0afa 01       		.byte	0x1
 3677 0afb 3D       		.byte	0x3d
 3678 0afc E50A0000 		.4byte	0xae5
 3679 0b00 05       		.uleb128 0x5
 3680 0b01 03       		.byte	0x3
 3681 0b02 00000000 		.4byte	BPM_ADC_gcor
 3682 0b06 1E       		.uleb128 0x1e
 3683 0b07 B4040000 		.4byte	.LASF83
 3684 0b0b 01       		.byte	0x1
 3685 0b0c 2C       		.byte	0x2c
 3686 0b0d 72000000 		.4byte	0x72
 3687 0b11 05       		.uleb128 0x5
 3688 0b12 03       		.byte	0x3
 3689 0b13 00000000 		.4byte	BPM_ADC_initVar
 3690 0b17 1E       		.uleb128 0x1e
 3691 0b18 C1010000 		.4byte	.LASF84
 3692 0b1c 01       		.byte	0x1
 3693 0b1d 24       		.byte	0x24
 3694 0b1e E0000000 		.4byte	0xe0
 3695 0b22 05       		.uleb128 0x5
 3696 0b23 03       		.byte	0x3
 3697 0b24 00000000 		.4byte	BPM_ADC_convDone
ARM GAS  C:\Users\student\AppData\Local\Temp\ccHj2j2l.s 			page 104


 3698 0b28 1E       		.uleb128 0x1e
 3699 0b29 CF050000 		.4byte	.LASF85
 3700 0b2d 01       		.byte	0x1
 3701 0b2e 29       		.byte	0x29
 3702 0b2f E0000000 		.4byte	0xe0
 3703 0b33 05       		.uleb128 0x5
 3704 0b34 03       		.byte	0x3
 3705 0b35 00000000 		.4byte	BPM_ADC_stopConversion
 3706 0b39 1E       		.uleb128 0x1e
 3707 0b3a AE050000 		.4byte	.LASF86
 3708 0b3e 01       		.byte	0x1
 3709 0b3f 2F       		.byte	0x2f
 3710 0b40 E0000000 		.4byte	0xe0
 3711 0b44 05       		.uleb128 0x5
 3712 0b45 03       		.byte	0x3
 3713 0b46 00000000 		.4byte	BPM_ADC_started
 3714 0b4a 1E       		.uleb128 0x1e
 3715 0b4b 2F030000 		.4byte	.LASF87
 3716 0b4f 01       		.byte	0x1
 3717 0b50 32       		.byte	0x32
 3718 0b51 E0000000 		.4byte	0xe0
 3719 0b55 05       		.uleb128 0x5
 3720 0b56 03       		.byte	0x3
 3721 0b57 00000000 		.4byte	BPM_ADC_Config
 3722 0b5b 1E       		.uleb128 0x1e
 3723 0b5c 5A030000 		.4byte	.LASF88
 3724 0b60 01       		.byte	0x1
 3725 0b61 34       		.byte	0x34
 3726 0b62 6C0B0000 		.4byte	0xb6c
 3727 0b66 05       		.uleb128 0x5
 3728 0b67 03       		.byte	0x3
 3729 0b68 00000000 		.4byte	BPM_ADC_Offset
 3730 0b6c 05       		.uleb128 0x5
 3731 0b6d AE000000 		.4byte	0xae
 3732 0b71 1E       		.uleb128 0x1e
 3733 0b72 6A040000 		.4byte	.LASF89
 3734 0b76 01       		.byte	0x1
 3735 0b77 35       		.byte	0x35
 3736 0b78 6C0B0000 		.4byte	0xb6c
 3737 0b7c 05       		.uleb128 0x5
 3738 0b7d 03       		.byte	0x3
 3739 0b7e 00000000 		.4byte	BPM_ADC_CountsPerVolt
 3740 0b82 1F       		.uleb128 0x1f
 3741 0b83 C1030000 		.4byte	.LASF90
 3742 0b87 04       		.byte	0x4
 3743 0b88 7F       		.byte	0x7f
 3744 0b89 930B0000 		.4byte	0xb93
 3745 0b8d 20       		.uleb128 0x20
 3746 0b8e 72000000 		.4byte	0x72
 3747 0b92 00       		.byte	0
 3748 0b93 21       		.uleb128 0x21
 3749 0b94 52020000 		.4byte	.LASF101
 3750 0b98 04       		.byte	0x4
 3751 0b99 7D       		.byte	0x7d
 3752 0b9a 72000000 		.4byte	0x72
 3753 0b9e 1F       		.uleb128 0x1f
 3754 0b9f 33010000 		.4byte	.LASF91
ARM GAS  C:\Users\student\AppData\Local\Temp\ccHj2j2l.s 			page 105


 3755 0ba3 04       		.byte	0x4
 3756 0ba4 77       		.byte	0x77
 3757 0ba5 AF0B0000 		.4byte	0xbaf
 3758 0ba9 20       		.uleb128 0x20
 3759 0baa 7E000000 		.4byte	0x7e
 3760 0bae 00       		.byte	0
 3761 0baf 1F       		.uleb128 0x1f
 3762 0bb0 0F000000 		.4byte	.LASF92
 3763 0bb4 04       		.byte	0x4
 3764 0bb5 7E       		.byte	0x7e
 3765 0bb6 C00B0000 		.4byte	0xbc0
 3766 0bba 20       		.uleb128 0x20
 3767 0bbb 72000000 		.4byte	0x72
 3768 0bbf 00       		.byte	0
 3769 0bc0 1F       		.uleb128 0x1f
 3770 0bc1 13030000 		.4byte	.LASF93
 3771 0bc5 05       		.byte	0x5
 3772 0bc6 50       		.byte	0x50
 3773 0bc7 D10B0000 		.4byte	0xbd1
 3774 0bcb 20       		.uleb128 0x20
 3775 0bcc 72000000 		.4byte	0x72
 3776 0bd0 00       		.byte	0
 3777 0bd1 1F       		.uleb128 0x1f
 3778 0bd2 DA010000 		.4byte	.LASF94
 3779 0bd6 06       		.byte	0x6
 3780 0bd7 2F       		.byte	0x2f
 3781 0bd8 E70B0000 		.4byte	0xbe7
 3782 0bdc 20       		.uleb128 0x20
 3783 0bdd 7E000000 		.4byte	0x7e
 3784 0be1 20       		.uleb128 0x20
 3785 0be2 72000000 		.4byte	0x72
 3786 0be6 00       		.byte	0
 3787 0be7 1F       		.uleb128 0x1f
 3788 0be8 69020000 		.4byte	.LASF95
 3789 0bec 07       		.byte	0x7
 3790 0bed 2F       		.byte	0x2f
 3791 0bee FD0B0000 		.4byte	0xbfd
 3792 0bf2 20       		.uleb128 0x20
 3793 0bf3 7E000000 		.4byte	0x7e
 3794 0bf7 20       		.uleb128 0x20
 3795 0bf8 72000000 		.4byte	0x72
 3796 0bfc 00       		.byte	0
 3797 0bfd 22       		.uleb128 0x22
 3798 0bfe 7B010000 		.4byte	.LASF102
 3799 0c02 04       		.byte	0x4
 3800 0c03 88       		.byte	0x88
 3801 0c04 07010000 		.4byte	0x107
 3802 0c08 170C0000 		.4byte	0xc17
 3803 0c0c 20       		.uleb128 0x20
 3804 0c0d 72000000 		.4byte	0x72
 3805 0c11 20       		.uleb128 0x20
 3806 0c12 07010000 		.4byte	0x107
 3807 0c16 00       		.byte	0
 3808 0c17 1F       		.uleb128 0x1f
 3809 0c18 98010000 		.4byte	.LASF96
 3810 0c1c 06       		.byte	0x6
 3811 0c1d 32       		.byte	0x32
ARM GAS  C:\Users\student\AppData\Local\Temp\ccHj2j2l.s 			page 106


 3812 0c1e 280C0000 		.4byte	0xc28
 3813 0c22 20       		.uleb128 0x20
 3814 0c23 72000000 		.4byte	0x72
 3815 0c27 00       		.byte	0
 3816 0c28 1F       		.uleb128 0x1f
 3817 0c29 19060000 		.4byte	.LASF97
 3818 0c2d 07       		.byte	0x7
 3819 0c2e 32       		.byte	0x32
 3820 0c2f 390C0000 		.4byte	0xc39
 3821 0c33 20       		.uleb128 0x20
 3822 0c34 72000000 		.4byte	0x72
 3823 0c38 00       		.byte	0
 3824 0c39 23       		.uleb128 0x23
 3825 0c3a 88030000 		.4byte	.LASF103
 3826 0c3e 04       		.byte	0x4
 3827 0c3f 8B       		.byte	0x8b
 3828 0c40 20       		.uleb128 0x20
 3829 0c41 72000000 		.4byte	0x72
 3830 0c45 20       		.uleb128 0x20
 3831 0c46 72000000 		.4byte	0x72
 3832 0c4a 00       		.byte	0
 3833 0c4b 00       		.byte	0
 3834              		.section	.debug_abbrev,"",%progbits
 3835              	.Ldebug_abbrev0:
 3836 0000 01       		.uleb128 0x1
 3837 0001 11       		.uleb128 0x11
 3838 0002 01       		.byte	0x1
 3839 0003 25       		.uleb128 0x25
 3840 0004 0E       		.uleb128 0xe
 3841 0005 13       		.uleb128 0x13
 3842 0006 0B       		.uleb128 0xb
 3843 0007 03       		.uleb128 0x3
 3844 0008 0E       		.uleb128 0xe
 3845 0009 1B       		.uleb128 0x1b
 3846 000a 0E       		.uleb128 0xe
 3847 000b 55       		.uleb128 0x55
 3848 000c 17       		.uleb128 0x17
 3849 000d 11       		.uleb128 0x11
 3850 000e 01       		.uleb128 0x1
 3851 000f 10       		.uleb128 0x10
 3852 0010 17       		.uleb128 0x17
 3853 0011 00       		.byte	0
 3854 0012 00       		.byte	0
 3855 0013 02       		.uleb128 0x2
 3856 0014 24       		.uleb128 0x24
 3857 0015 00       		.byte	0
 3858 0016 0B       		.uleb128 0xb
 3859 0017 0B       		.uleb128 0xb
 3860 0018 3E       		.uleb128 0x3e
 3861 0019 0B       		.uleb128 0xb
 3862 001a 03       		.uleb128 0x3
 3863 001b 0E       		.uleb128 0xe
 3864 001c 00       		.byte	0
 3865 001d 00       		.byte	0
 3866 001e 03       		.uleb128 0x3
 3867 001f 24       		.uleb128 0x24
 3868 0020 00       		.byte	0
ARM GAS  C:\Users\student\AppData\Local\Temp\ccHj2j2l.s 			page 107


 3869 0021 0B       		.uleb128 0xb
 3870 0022 0B       		.uleb128 0xb
 3871 0023 3E       		.uleb128 0x3e
 3872 0024 0B       		.uleb128 0xb
 3873 0025 03       		.uleb128 0x3
 3874 0026 08       		.uleb128 0x8
 3875 0027 00       		.byte	0
 3876 0028 00       		.byte	0
 3877 0029 04       		.uleb128 0x4
 3878 002a 16       		.uleb128 0x16
 3879 002b 00       		.byte	0
 3880 002c 03       		.uleb128 0x3
 3881 002d 0E       		.uleb128 0xe
 3882 002e 3A       		.uleb128 0x3a
 3883 002f 0B       		.uleb128 0xb
 3884 0030 3B       		.uleb128 0x3b
 3885 0031 05       		.uleb128 0x5
 3886 0032 49       		.uleb128 0x49
 3887 0033 13       		.uleb128 0x13
 3888 0034 00       		.byte	0
 3889 0035 00       		.byte	0
 3890 0036 05       		.uleb128 0x5
 3891 0037 35       		.uleb128 0x35
 3892 0038 00       		.byte	0
 3893 0039 49       		.uleb128 0x49
 3894 003a 13       		.uleb128 0x13
 3895 003b 00       		.byte	0
 3896 003c 00       		.byte	0
 3897 003d 06       		.uleb128 0x6
 3898 003e 0F       		.uleb128 0xf
 3899 003f 00       		.byte	0
 3900 0040 0B       		.uleb128 0xb
 3901 0041 0B       		.uleb128 0xb
 3902 0042 49       		.uleb128 0x49
 3903 0043 13       		.uleb128 0x13
 3904 0044 00       		.byte	0
 3905 0045 00       		.byte	0
 3906 0046 07       		.uleb128 0x7
 3907 0047 15       		.uleb128 0x15
 3908 0048 00       		.byte	0
 3909 0049 27       		.uleb128 0x27
 3910 004a 19       		.uleb128 0x19
 3911 004b 00       		.byte	0
 3912 004c 00       		.byte	0
 3913 004d 08       		.uleb128 0x8
 3914 004e 13       		.uleb128 0x13
 3915 004f 01       		.byte	0x1
 3916 0050 0B       		.uleb128 0xb
 3917 0051 0B       		.uleb128 0xb
 3918 0052 3A       		.uleb128 0x3a
 3919 0053 0B       		.uleb128 0xb
 3920 0054 3B       		.uleb128 0x3b
 3921 0055 0B       		.uleb128 0xb
 3922 0056 01       		.uleb128 0x1
 3923 0057 13       		.uleb128 0x13
 3924 0058 00       		.byte	0
 3925 0059 00       		.byte	0
ARM GAS  C:\Users\student\AppData\Local\Temp\ccHj2j2l.s 			page 108


 3926 005a 09       		.uleb128 0x9
 3927 005b 0D       		.uleb128 0xd
 3928 005c 00       		.byte	0
 3929 005d 03       		.uleb128 0x3
 3930 005e 0E       		.uleb128 0xe
 3931 005f 3A       		.uleb128 0x3a
 3932 0060 0B       		.uleb128 0xb
 3933 0061 3B       		.uleb128 0x3b
 3934 0062 0B       		.uleb128 0xb
 3935 0063 49       		.uleb128 0x49
 3936 0064 13       		.uleb128 0x13
 3937 0065 38       		.uleb128 0x38
 3938 0066 0B       		.uleb128 0xb
 3939 0067 00       		.byte	0
 3940 0068 00       		.byte	0
 3941 0069 0A       		.uleb128 0xa
 3942 006a 16       		.uleb128 0x16
 3943 006b 00       		.byte	0
 3944 006c 03       		.uleb128 0x3
 3945 006d 0E       		.uleb128 0xe
 3946 006e 3A       		.uleb128 0x3a
 3947 006f 0B       		.uleb128 0xb
 3948 0070 3B       		.uleb128 0x3b
 3949 0071 0B       		.uleb128 0xb
 3950 0072 49       		.uleb128 0x49
 3951 0073 13       		.uleb128 0x13
 3952 0074 00       		.byte	0
 3953 0075 00       		.byte	0
 3954 0076 0B       		.uleb128 0xb
 3955 0077 2E       		.uleb128 0x2e
 3956 0078 01       		.byte	0x1
 3957 0079 03       		.uleb128 0x3
 3958 007a 0E       		.uleb128 0xe
 3959 007b 3A       		.uleb128 0x3a
 3960 007c 0B       		.uleb128 0xb
 3961 007d 3B       		.uleb128 0x3b
 3962 007e 05       		.uleb128 0x5
 3963 007f 27       		.uleb128 0x27
 3964 0080 19       		.uleb128 0x19
 3965 0081 11       		.uleb128 0x11
 3966 0082 01       		.uleb128 0x1
 3967 0083 12       		.uleb128 0x12
 3968 0084 06       		.uleb128 0x6
 3969 0085 40       		.uleb128 0x40
 3970 0086 18       		.uleb128 0x18
 3971 0087 9742     		.uleb128 0x2117
 3972 0089 19       		.uleb128 0x19
 3973 008a 01       		.uleb128 0x1
 3974 008b 13       		.uleb128 0x13
 3975 008c 00       		.byte	0
 3976 008d 00       		.byte	0
 3977 008e 0C       		.uleb128 0xc
 3978 008f 05       		.uleb128 0x5
 3979 0090 00       		.byte	0
 3980 0091 03       		.uleb128 0x3
 3981 0092 0E       		.uleb128 0xe
 3982 0093 3A       		.uleb128 0x3a
ARM GAS  C:\Users\student\AppData\Local\Temp\ccHj2j2l.s 			page 109


 3983 0094 0B       		.uleb128 0xb
 3984 0095 3B       		.uleb128 0x3b
 3985 0096 05       		.uleb128 0x5
 3986 0097 49       		.uleb128 0x49
 3987 0098 13       		.uleb128 0x13
 3988 0099 02       		.uleb128 0x2
 3989 009a 17       		.uleb128 0x17
 3990 009b 00       		.byte	0
 3991 009c 00       		.byte	0
 3992 009d 0D       		.uleb128 0xd
 3993 009e 34       		.uleb128 0x34
 3994 009f 00       		.byte	0
 3995 00a0 03       		.uleb128 0x3
 3996 00a1 0E       		.uleb128 0xe
 3997 00a2 3A       		.uleb128 0x3a
 3998 00a3 0B       		.uleb128 0xb
 3999 00a4 3B       		.uleb128 0x3b
 4000 00a5 05       		.uleb128 0x5
 4001 00a6 49       		.uleb128 0x49
 4002 00a7 13       		.uleb128 0x13
 4003 00a8 02       		.uleb128 0x2
 4004 00a9 17       		.uleb128 0x17
 4005 00aa 00       		.byte	0
 4006 00ab 00       		.byte	0
 4007 00ac 0E       		.uleb128 0xe
 4008 00ad 898201   		.uleb128 0x4109
 4009 00b0 01       		.byte	0x1
 4010 00b1 11       		.uleb128 0x11
 4011 00b2 01       		.uleb128 0x1
 4012 00b3 31       		.uleb128 0x31
 4013 00b4 13       		.uleb128 0x13
 4014 00b5 00       		.byte	0
 4015 00b6 00       		.byte	0
 4016 00b7 0F       		.uleb128 0xf
 4017 00b8 8A8201   		.uleb128 0x410a
 4018 00bb 00       		.byte	0
 4019 00bc 02       		.uleb128 0x2
 4020 00bd 18       		.uleb128 0x18
 4021 00be 9142     		.uleb128 0x2111
 4022 00c0 18       		.uleb128 0x18
 4023 00c1 00       		.byte	0
 4024 00c2 00       		.byte	0
 4025 00c3 10       		.uleb128 0x10
 4026 00c4 898201   		.uleb128 0x4109
 4027 00c7 00       		.byte	0
 4028 00c8 11       		.uleb128 0x11
 4029 00c9 01       		.uleb128 0x1
 4030 00ca 31       		.uleb128 0x31
 4031 00cb 13       		.uleb128 0x13
 4032 00cc 00       		.byte	0
 4033 00cd 00       		.byte	0
 4034 00ce 11       		.uleb128 0x11
 4035 00cf 898201   		.uleb128 0x4109
 4036 00d2 01       		.byte	0x1
 4037 00d3 11       		.uleb128 0x11
 4038 00d4 01       		.uleb128 0x1
 4039 00d5 31       		.uleb128 0x31
ARM GAS  C:\Users\student\AppData\Local\Temp\ccHj2j2l.s 			page 110


 4040 00d6 13       		.uleb128 0x13
 4041 00d7 01       		.uleb128 0x1
 4042 00d8 13       		.uleb128 0x13
 4043 00d9 00       		.byte	0
 4044 00da 00       		.byte	0
 4045 00db 12       		.uleb128 0x12
 4046 00dc 2E       		.uleb128 0x2e
 4047 00dd 01       		.byte	0x1
 4048 00de 3F       		.uleb128 0x3f
 4049 00df 19       		.uleb128 0x19
 4050 00e0 03       		.uleb128 0x3
 4051 00e1 0E       		.uleb128 0xe
 4052 00e2 3A       		.uleb128 0x3a
 4053 00e3 0B       		.uleb128 0xb
 4054 00e4 3B       		.uleb128 0x3b
 4055 00e5 0B       		.uleb128 0xb
 4056 00e6 27       		.uleb128 0x27
 4057 00e7 19       		.uleb128 0x19
 4058 00e8 11       		.uleb128 0x11
 4059 00e9 01       		.uleb128 0x1
 4060 00ea 12       		.uleb128 0x12
 4061 00eb 06       		.uleb128 0x6
 4062 00ec 40       		.uleb128 0x40
 4063 00ed 18       		.uleb128 0x18
 4064 00ee 9742     		.uleb128 0x2117
 4065 00f0 19       		.uleb128 0x19
 4066 00f1 01       		.uleb128 0x1
 4067 00f2 13       		.uleb128 0x13
 4068 00f3 00       		.byte	0
 4069 00f4 00       		.byte	0
 4070 00f5 13       		.uleb128 0x13
 4071 00f6 34       		.uleb128 0x34
 4072 00f7 00       		.byte	0
 4073 00f8 03       		.uleb128 0x3
 4074 00f9 0E       		.uleb128 0xe
 4075 00fa 3A       		.uleb128 0x3a
 4076 00fb 0B       		.uleb128 0xb
 4077 00fc 3B       		.uleb128 0x3b
 4078 00fd 0B       		.uleb128 0xb
 4079 00fe 49       		.uleb128 0x49
 4080 00ff 13       		.uleb128 0x13
 4081 0100 00       		.byte	0
 4082 0101 00       		.byte	0
 4083 0102 14       		.uleb128 0x14
 4084 0103 34       		.uleb128 0x34
 4085 0104 00       		.byte	0
 4086 0105 03       		.uleb128 0x3
 4087 0106 0E       		.uleb128 0xe
 4088 0107 3A       		.uleb128 0x3a
 4089 0108 0B       		.uleb128 0xb
 4090 0109 3B       		.uleb128 0x3b
 4091 010a 0B       		.uleb128 0xb
 4092 010b 49       		.uleb128 0x49
 4093 010c 13       		.uleb128 0x13
 4094 010d 02       		.uleb128 0x2
 4095 010e 17       		.uleb128 0x17
 4096 010f 00       		.byte	0
ARM GAS  C:\Users\student\AppData\Local\Temp\ccHj2j2l.s 			page 111


 4097 0110 00       		.byte	0
 4098 0111 15       		.uleb128 0x15
 4099 0112 2E       		.uleb128 0x2e
 4100 0113 01       		.byte	0x1
 4101 0114 3F       		.uleb128 0x3f
 4102 0115 19       		.uleb128 0x19
 4103 0116 03       		.uleb128 0x3
 4104 0117 0E       		.uleb128 0xe
 4105 0118 3A       		.uleb128 0x3a
 4106 0119 0B       		.uleb128 0xb
 4107 011a 3B       		.uleb128 0x3b
 4108 011b 05       		.uleb128 0x5
 4109 011c 27       		.uleb128 0x27
 4110 011d 19       		.uleb128 0x19
 4111 011e 11       		.uleb128 0x11
 4112 011f 01       		.uleb128 0x1
 4113 0120 12       		.uleb128 0x12
 4114 0121 06       		.uleb128 0x6
 4115 0122 40       		.uleb128 0x40
 4116 0123 18       		.uleb128 0x18
 4117 0124 9742     		.uleb128 0x2117
 4118 0126 19       		.uleb128 0x19
 4119 0127 01       		.uleb128 0x1
 4120 0128 13       		.uleb128 0x13
 4121 0129 00       		.byte	0
 4122 012a 00       		.byte	0
 4123 012b 16       		.uleb128 0x16
 4124 012c 2E       		.uleb128 0x2e
 4125 012d 01       		.byte	0x1
 4126 012e 3F       		.uleb128 0x3f
 4127 012f 19       		.uleb128 0x19
 4128 0130 03       		.uleb128 0x3
 4129 0131 0E       		.uleb128 0xe
 4130 0132 3A       		.uleb128 0x3a
 4131 0133 0B       		.uleb128 0xb
 4132 0134 3B       		.uleb128 0x3b
 4133 0135 05       		.uleb128 0x5
 4134 0136 27       		.uleb128 0x27
 4135 0137 19       		.uleb128 0x19
 4136 0138 49       		.uleb128 0x49
 4137 0139 13       		.uleb128 0x13
 4138 013a 11       		.uleb128 0x11
 4139 013b 01       		.uleb128 0x1
 4140 013c 12       		.uleb128 0x12
 4141 013d 06       		.uleb128 0x6
 4142 013e 40       		.uleb128 0x40
 4143 013f 18       		.uleb128 0x18
 4144 0140 9642     		.uleb128 0x2116
 4145 0142 19       		.uleb128 0x19
 4146 0143 01       		.uleb128 0x1
 4147 0144 13       		.uleb128 0x13
 4148 0145 00       		.byte	0
 4149 0146 00       		.byte	0
 4150 0147 17       		.uleb128 0x17
 4151 0148 2E       		.uleb128 0x2e
 4152 0149 01       		.byte	0x1
 4153 014a 3F       		.uleb128 0x3f
ARM GAS  C:\Users\student\AppData\Local\Temp\ccHj2j2l.s 			page 112


 4154 014b 19       		.uleb128 0x19
 4155 014c 03       		.uleb128 0x3
 4156 014d 0E       		.uleb128 0xe
 4157 014e 3A       		.uleb128 0x3a
 4158 014f 0B       		.uleb128 0xb
 4159 0150 3B       		.uleb128 0x3b
 4160 0151 05       		.uleb128 0x5
 4161 0152 27       		.uleb128 0x27
 4162 0153 19       		.uleb128 0x19
 4163 0154 49       		.uleb128 0x49
 4164 0155 13       		.uleb128 0x13
 4165 0156 11       		.uleb128 0x11
 4166 0157 01       		.uleb128 0x1
 4167 0158 12       		.uleb128 0x12
 4168 0159 06       		.uleb128 0x6
 4169 015a 40       		.uleb128 0x40
 4170 015b 18       		.uleb128 0x18
 4171 015c 9742     		.uleb128 0x2117
 4172 015e 19       		.uleb128 0x19
 4173 015f 01       		.uleb128 0x1
 4174 0160 13       		.uleb128 0x13
 4175 0161 00       		.byte	0
 4176 0162 00       		.byte	0
 4177 0163 18       		.uleb128 0x18
 4178 0164 2E       		.uleb128 0x2e
 4179 0165 00       		.byte	0
 4180 0166 3F       		.uleb128 0x3f
 4181 0167 19       		.uleb128 0x19
 4182 0168 03       		.uleb128 0x3
 4183 0169 0E       		.uleb128 0xe
 4184 016a 3A       		.uleb128 0x3a
 4185 016b 0B       		.uleb128 0xb
 4186 016c 3B       		.uleb128 0x3b
 4187 016d 05       		.uleb128 0x5
 4188 016e 27       		.uleb128 0x27
 4189 016f 19       		.uleb128 0x19
 4190 0170 11       		.uleb128 0x11
 4191 0171 01       		.uleb128 0x1
 4192 0172 12       		.uleb128 0x12
 4193 0173 06       		.uleb128 0x6
 4194 0174 40       		.uleb128 0x40
 4195 0175 18       		.uleb128 0x18
 4196 0176 9742     		.uleb128 0x2117
 4197 0178 19       		.uleb128 0x19
 4198 0179 00       		.byte	0
 4199 017a 00       		.byte	0
 4200 017b 19       		.uleb128 0x19
 4201 017c 34       		.uleb128 0x34
 4202 017d 00       		.byte	0
 4203 017e 03       		.uleb128 0x3
 4204 017f 0E       		.uleb128 0xe
 4205 0180 3A       		.uleb128 0x3a
 4206 0181 0B       		.uleb128 0xb
 4207 0182 3B       		.uleb128 0x3b
 4208 0183 05       		.uleb128 0x5
 4209 0184 49       		.uleb128 0x49
 4210 0185 13       		.uleb128 0x13
ARM GAS  C:\Users\student\AppData\Local\Temp\ccHj2j2l.s 			page 113


 4211 0186 02       		.uleb128 0x2
 4212 0187 18       		.uleb128 0x18
 4213 0188 00       		.byte	0
 4214 0189 00       		.byte	0
 4215 018a 1A       		.uleb128 0x1a
 4216 018b 05       		.uleb128 0x5
 4217 018c 00       		.byte	0
 4218 018d 03       		.uleb128 0x3
 4219 018e 0E       		.uleb128 0xe
 4220 018f 3A       		.uleb128 0x3a
 4221 0190 0B       		.uleb128 0xb
 4222 0191 3B       		.uleb128 0x3b
 4223 0192 05       		.uleb128 0x5
 4224 0193 49       		.uleb128 0x49
 4225 0194 13       		.uleb128 0x13
 4226 0195 02       		.uleb128 0x2
 4227 0196 18       		.uleb128 0x18
 4228 0197 00       		.byte	0
 4229 0198 00       		.byte	0
 4230 0199 1B       		.uleb128 0x1b
 4231 019a 01       		.uleb128 0x1
 4232 019b 01       		.byte	0x1
 4233 019c 49       		.uleb128 0x49
 4234 019d 13       		.uleb128 0x13
 4235 019e 01       		.uleb128 0x1
 4236 019f 13       		.uleb128 0x13
 4237 01a0 00       		.byte	0
 4238 01a1 00       		.byte	0
 4239 01a2 1C       		.uleb128 0x1c
 4240 01a3 21       		.uleb128 0x21
 4241 01a4 00       		.byte	0
 4242 01a5 49       		.uleb128 0x49
 4243 01a6 13       		.uleb128 0x13
 4244 01a7 2F       		.uleb128 0x2f
 4245 01a8 0B       		.uleb128 0xb
 4246 01a9 00       		.byte	0
 4247 01aa 00       		.byte	0
 4248 01ab 1D       		.uleb128 0x1d
 4249 01ac 34       		.uleb128 0x34
 4250 01ad 00       		.byte	0
 4251 01ae 03       		.uleb128 0x3
 4252 01af 0E       		.uleb128 0xe
 4253 01b0 3A       		.uleb128 0x3a
 4254 01b1 0B       		.uleb128 0xb
 4255 01b2 3B       		.uleb128 0x3b
 4256 01b3 0B       		.uleb128 0xb
 4257 01b4 49       		.uleb128 0x49
 4258 01b5 13       		.uleb128 0x13
 4259 01b6 02       		.uleb128 0x2
 4260 01b7 18       		.uleb128 0x18
 4261 01b8 00       		.byte	0
 4262 01b9 00       		.byte	0
 4263 01ba 1E       		.uleb128 0x1e
 4264 01bb 34       		.uleb128 0x34
 4265 01bc 00       		.byte	0
 4266 01bd 03       		.uleb128 0x3
 4267 01be 0E       		.uleb128 0xe
ARM GAS  C:\Users\student\AppData\Local\Temp\ccHj2j2l.s 			page 114


 4268 01bf 3A       		.uleb128 0x3a
 4269 01c0 0B       		.uleb128 0xb
 4270 01c1 3B       		.uleb128 0x3b
 4271 01c2 0B       		.uleb128 0xb
 4272 01c3 49       		.uleb128 0x49
 4273 01c4 13       		.uleb128 0x13
 4274 01c5 3F       		.uleb128 0x3f
 4275 01c6 19       		.uleb128 0x19
 4276 01c7 02       		.uleb128 0x2
 4277 01c8 18       		.uleb128 0x18
 4278 01c9 00       		.byte	0
 4279 01ca 00       		.byte	0
 4280 01cb 1F       		.uleb128 0x1f
 4281 01cc 2E       		.uleb128 0x2e
 4282 01cd 01       		.byte	0x1
 4283 01ce 3F       		.uleb128 0x3f
 4284 01cf 19       		.uleb128 0x19
 4285 01d0 03       		.uleb128 0x3
 4286 01d1 0E       		.uleb128 0xe
 4287 01d2 3A       		.uleb128 0x3a
 4288 01d3 0B       		.uleb128 0xb
 4289 01d4 3B       		.uleb128 0x3b
 4290 01d5 0B       		.uleb128 0xb
 4291 01d6 27       		.uleb128 0x27
 4292 01d7 19       		.uleb128 0x19
 4293 01d8 3C       		.uleb128 0x3c
 4294 01d9 19       		.uleb128 0x19
 4295 01da 01       		.uleb128 0x1
 4296 01db 13       		.uleb128 0x13
 4297 01dc 00       		.byte	0
 4298 01dd 00       		.byte	0
 4299 01de 20       		.uleb128 0x20
 4300 01df 05       		.uleb128 0x5
 4301 01e0 00       		.byte	0
 4302 01e1 49       		.uleb128 0x49
 4303 01e2 13       		.uleb128 0x13
 4304 01e3 00       		.byte	0
 4305 01e4 00       		.byte	0
 4306 01e5 21       		.uleb128 0x21
 4307 01e6 2E       		.uleb128 0x2e
 4308 01e7 00       		.byte	0
 4309 01e8 3F       		.uleb128 0x3f
 4310 01e9 19       		.uleb128 0x19
 4311 01ea 03       		.uleb128 0x3
 4312 01eb 0E       		.uleb128 0xe
 4313 01ec 3A       		.uleb128 0x3a
 4314 01ed 0B       		.uleb128 0xb
 4315 01ee 3B       		.uleb128 0x3b
 4316 01ef 0B       		.uleb128 0xb
 4317 01f0 27       		.uleb128 0x27
 4318 01f1 19       		.uleb128 0x19
 4319 01f2 49       		.uleb128 0x49
 4320 01f3 13       		.uleb128 0x13
 4321 01f4 3C       		.uleb128 0x3c
 4322 01f5 19       		.uleb128 0x19
 4323 01f6 00       		.byte	0
 4324 01f7 00       		.byte	0
ARM GAS  C:\Users\student\AppData\Local\Temp\ccHj2j2l.s 			page 115


 4325 01f8 22       		.uleb128 0x22
 4326 01f9 2E       		.uleb128 0x2e
 4327 01fa 01       		.byte	0x1
 4328 01fb 3F       		.uleb128 0x3f
 4329 01fc 19       		.uleb128 0x19
 4330 01fd 03       		.uleb128 0x3
 4331 01fe 0E       		.uleb128 0xe
 4332 01ff 3A       		.uleb128 0x3a
 4333 0200 0B       		.uleb128 0xb
 4334 0201 3B       		.uleb128 0x3b
 4335 0202 0B       		.uleb128 0xb
 4336 0203 27       		.uleb128 0x27
 4337 0204 19       		.uleb128 0x19
 4338 0205 49       		.uleb128 0x49
 4339 0206 13       		.uleb128 0x13
 4340 0207 3C       		.uleb128 0x3c
 4341 0208 19       		.uleb128 0x19
 4342 0209 01       		.uleb128 0x1
 4343 020a 13       		.uleb128 0x13
 4344 020b 00       		.byte	0
 4345 020c 00       		.byte	0
 4346 020d 23       		.uleb128 0x23
 4347 020e 2E       		.uleb128 0x2e
 4348 020f 01       		.byte	0x1
 4349 0210 3F       		.uleb128 0x3f
 4350 0211 19       		.uleb128 0x19
 4351 0212 03       		.uleb128 0x3
 4352 0213 0E       		.uleb128 0xe
 4353 0214 3A       		.uleb128 0x3a
 4354 0215 0B       		.uleb128 0xb
 4355 0216 3B       		.uleb128 0x3b
 4356 0217 0B       		.uleb128 0xb
 4357 0218 27       		.uleb128 0x27
 4358 0219 19       		.uleb128 0x19
 4359 021a 3C       		.uleb128 0x3c
 4360 021b 19       		.uleb128 0x19
 4361 021c 00       		.byte	0
 4362 021d 00       		.byte	0
 4363 021e 00       		.byte	0
 4364              		.section	.debug_loc,"",%progbits
 4365              	.Ldebug_loc0:
 4366              	.LLST0:
 4367 0000 00000000 		.4byte	.LVL0
 4368 0004 10000000 		.4byte	.LVL1
 4369 0008 0100     		.2byte	0x1
 4370 000a 50       		.byte	0x50
 4371 000b 10000000 		.4byte	.LVL1
 4372 000f A4000000 		.4byte	.LVL29
 4373 0013 0400     		.2byte	0x4
 4374 0015 F3       		.byte	0xf3
 4375 0016 01       		.uleb128 0x1
 4376 0017 50       		.byte	0x50
 4377 0018 9F       		.byte	0x9f
 4378 0019 A4000000 		.4byte	.LVL29
 4379 001d A6000000 		.4byte	.LVL30
 4380 0021 0100     		.2byte	0x1
 4381 0023 50       		.byte	0x50
ARM GAS  C:\Users\student\AppData\Local\Temp\ccHj2j2l.s 			page 116


 4382 0024 A6000000 		.4byte	.LVL30
 4383 0028 D0000000 		.4byte	.LFE21
 4384 002c 0400     		.2byte	0x4
 4385 002e F3       		.byte	0xf3
 4386 002f 01       		.uleb128 0x1
 4387 0030 50       		.byte	0x50
 4388 0031 9F       		.byte	0x9f
 4389 0032 00000000 		.4byte	0
 4390 0036 00000000 		.4byte	0
 4391              	.LLST1:
 4392 003a 00000000 		.4byte	.LVL0
 4393 003e 6A000000 		.4byte	.LVL19
 4394 0042 0100     		.2byte	0x1
 4395 0044 51       		.byte	0x51
 4396 0045 6A000000 		.4byte	.LVL19
 4397 0049 A4000000 		.4byte	.LVL29
 4398 004d 0400     		.2byte	0x4
 4399 004f F3       		.byte	0xf3
 4400 0050 01       		.uleb128 0x1
 4401 0051 51       		.byte	0x51
 4402 0052 9F       		.byte	0x9f
 4403 0053 A4000000 		.4byte	.LVL29
 4404 0057 A9000000 		.4byte	.LVL31-1
 4405 005b 0100     		.2byte	0x1
 4406 005d 51       		.byte	0x51
 4407 005e A9000000 		.4byte	.LVL31-1
 4408 0062 D0000000 		.4byte	.LFE21
 4409 0066 0400     		.2byte	0x4
 4410 0068 F3       		.byte	0xf3
 4411 0069 01       		.uleb128 0x1
 4412 006a 51       		.byte	0x51
 4413 006b 9F       		.byte	0x9f
 4414 006c 00000000 		.4byte	0
 4415 0070 00000000 		.4byte	0
 4416              	.LLST2:
 4417 0074 00000000 		.4byte	.LVL0
 4418 0078 6E000000 		.4byte	.LVL20
 4419 007c 0100     		.2byte	0x1
 4420 007e 52       		.byte	0x52
 4421 007f 6E000000 		.4byte	.LVL20
 4422 0083 A4000000 		.4byte	.LVL29
 4423 0087 0400     		.2byte	0x4
 4424 0089 F3       		.byte	0xf3
 4425 008a 01       		.uleb128 0x1
 4426 008b 52       		.byte	0x52
 4427 008c 9F       		.byte	0x9f
 4428 008d A4000000 		.4byte	.LVL29
 4429 0091 A9000000 		.4byte	.LVL31-1
 4430 0095 0100     		.2byte	0x1
 4431 0097 52       		.byte	0x52
 4432 0098 A9000000 		.4byte	.LVL31-1
 4433 009c D0000000 		.4byte	.LFE21
 4434 00a0 0400     		.2byte	0x4
 4435 00a2 F3       		.byte	0xf3
 4436 00a3 01       		.uleb128 0x1
 4437 00a4 52       		.byte	0x52
 4438 00a5 9F       		.byte	0x9f
ARM GAS  C:\Users\student\AppData\Local\Temp\ccHj2j2l.s 			page 117


 4439 00a6 00000000 		.4byte	0
 4440 00aa 00000000 		.4byte	0
 4441              	.LLST3:
 4442 00ae 00000000 		.4byte	.LVL0
 4443 00b2 88000000 		.4byte	.LVL26
 4444 00b6 0100     		.2byte	0x1
 4445 00b8 53       		.byte	0x53
 4446 00b9 88000000 		.4byte	.LVL26
 4447 00bd 8E000000 		.4byte	.LVL27
 4448 00c1 0400     		.2byte	0x4
 4449 00c3 F3       		.byte	0xf3
 4450 00c4 01       		.uleb128 0x1
 4451 00c5 53       		.byte	0x53
 4452 00c6 9F       		.byte	0x9f
 4453 00c7 8E000000 		.4byte	.LVL27
 4454 00cb 90000000 		.4byte	.LVL28
 4455 00cf 0100     		.2byte	0x1
 4456 00d1 53       		.byte	0x53
 4457 00d2 90000000 		.4byte	.LVL28
 4458 00d6 A4000000 		.4byte	.LVL29
 4459 00da 0400     		.2byte	0x4
 4460 00dc F3       		.byte	0xf3
 4461 00dd 01       		.uleb128 0x1
 4462 00de 53       		.byte	0x53
 4463 00df 9F       		.byte	0x9f
 4464 00e0 A4000000 		.4byte	.LVL29
 4465 00e4 A9000000 		.4byte	.LVL31-1
 4466 00e8 0100     		.2byte	0x1
 4467 00ea 53       		.byte	0x53
 4468 00eb A9000000 		.4byte	.LVL31-1
 4469 00ef D0000000 		.4byte	.LFE21
 4470 00f3 0400     		.2byte	0x4
 4471 00f5 F3       		.byte	0xf3
 4472 00f6 01       		.uleb128 0x1
 4473 00f7 53       		.byte	0x53
 4474 00f8 9F       		.byte	0x9f
 4475 00f9 00000000 		.4byte	0
 4476 00fd 00000000 		.4byte	0
 4477              	.LLST4:
 4478 0101 00000000 		.4byte	.LVL0
 4479 0105 A4000000 		.4byte	.LVL29
 4480 0109 0200     		.2byte	0x2
 4481 010b 91       		.byte	0x91
 4482 010c 00       		.sleb128 0
 4483 010d A4000000 		.4byte	.LVL29
 4484 0111 AC000000 		.4byte	.LVL32
 4485 0115 0200     		.2byte	0x2
 4486 0117 91       		.byte	0x91
 4487 0118 00       		.sleb128 0
 4488 0119 AC000000 		.4byte	.LVL32
 4489 011d D0000000 		.4byte	.LFE21
 4490 0121 0200     		.2byte	0x2
 4491 0123 7D       		.byte	0x7d
 4492 0124 00       		.sleb128 0
 4493 0125 00000000 		.4byte	0
 4494 0129 00000000 		.4byte	0
 4495              	.LLST5:
ARM GAS  C:\Users\student\AppData\Local\Temp\ccHj2j2l.s 			page 118


 4496 012d 2A000000 		.4byte	.LVL2
 4497 0131 2C000000 		.4byte	.LVL3
 4498 0135 0100     		.2byte	0x1
 4499 0137 50       		.byte	0x50
 4500 0138 30000000 		.4byte	.LVL4
 4501 013c 32000000 		.4byte	.LVL5
 4502 0140 0100     		.2byte	0x1
 4503 0142 50       		.byte	0x50
 4504 0143 3A000000 		.4byte	.LVL6
 4505 0147 3C000000 		.4byte	.LVL7
 4506 014b 0100     		.2byte	0x1
 4507 014d 50       		.byte	0x50
 4508 014e 40000000 		.4byte	.LVL8
 4509 0152 42000000 		.4byte	.LVL9
 4510 0156 0100     		.2byte	0x1
 4511 0158 50       		.byte	0x50
 4512 0159 4A000000 		.4byte	.LVL10
 4513 015d 4C000000 		.4byte	.LVL11
 4514 0161 0100     		.2byte	0x1
 4515 0163 50       		.byte	0x50
 4516 0164 50000000 		.4byte	.LVL12
 4517 0168 52000000 		.4byte	.LVL13
 4518 016c 0100     		.2byte	0x1
 4519 016e 50       		.byte	0x50
 4520 016f 5A000000 		.4byte	.LVL14
 4521 0173 5C000000 		.4byte	.LVL15
 4522 0177 0100     		.2byte	0x1
 4523 0179 50       		.byte	0x50
 4524 017a 60000000 		.4byte	.LVL16
 4525 017e 62000000 		.4byte	.LVL17
 4526 0182 0100     		.2byte	0x1
 4527 0184 50       		.byte	0x50
 4528 0185 64000000 		.4byte	.LVL18
 4529 0189 A4000000 		.4byte	.LVL29
 4530 018d 0100     		.2byte	0x1
 4531 018f 50       		.byte	0x50
 4532 0190 00000000 		.4byte	0
 4533 0194 00000000 		.4byte	0
 4534              	.LLST6:
 4535 0198 6A000000 		.4byte	.LVL19
 4536 019c 72000000 		.4byte	.LVL22
 4537 01a0 0100     		.2byte	0x1
 4538 01a2 51       		.byte	0x51
 4539 01a3 00000000 		.4byte	0
 4540 01a7 00000000 		.4byte	0
 4541              	.LLST7:
 4542 01ab 72000000 		.4byte	.LVL22
 4543 01af 7A000000 		.4byte	.LVL23
 4544 01b3 0100     		.2byte	0x1
 4545 01b5 51       		.byte	0x51
 4546 01b6 7A000000 		.4byte	.LVL23
 4547 01ba 7E000000 		.4byte	.LVL24
 4548 01be 0100     		.2byte	0x1
 4549 01c0 52       		.byte	0x52
 4550 01c1 80000000 		.4byte	.LVL25
 4551 01c5 A4000000 		.4byte	.LVL29
 4552 01c9 0100     		.2byte	0x1
ARM GAS  C:\Users\student\AppData\Local\Temp\ccHj2j2l.s 			page 119


 4553 01cb 51       		.byte	0x51
 4554 01cc 00000000 		.4byte	0
 4555 01d0 00000000 		.4byte	0
 4556              	.LLST8:
 4557 01d4 6E000000 		.4byte	.LVL20
 4558 01d8 70000000 		.4byte	.LVL21
 4559 01dc 0100     		.2byte	0x1
 4560 01de 52       		.byte	0x52
 4561 01df 00000000 		.4byte	0
 4562 01e3 00000000 		.4byte	0
 4563              	.LLST9:
 4564 01e7 00000000 		.4byte	.LVL33
 4565 01eb 07000000 		.4byte	.LVL34-1
 4566 01ef 0100     		.2byte	0x1
 4567 01f1 50       		.byte	0x50
 4568 01f2 07000000 		.4byte	.LVL34-1
 4569 01f6 4C000000 		.4byte	.LFE22
 4570 01fa 0400     		.2byte	0x4
 4571 01fc F3       		.byte	0xf3
 4572 01fd 01       		.uleb128 0x1
 4573 01fe 50       		.byte	0x50
 4574 01ff 9F       		.byte	0x9f
 4575 0200 00000000 		.4byte	0
 4576 0204 00000000 		.4byte	0
 4577              	.LLST10:
 4578 0208 0A000000 		.4byte	.LVL35
 4579 020c 40000000 		.4byte	.LVL38
 4580 0210 0100     		.2byte	0x1
 4581 0212 56       		.byte	0x56
 4582 0213 00000000 		.4byte	0
 4583 0217 00000000 		.4byte	0
 4584              	.LLST11:
 4585 021b 00000000 		.4byte	.LVL39
 4586 021f 80000000 		.4byte	.LVL40
 4587 0223 0100     		.2byte	0x1
 4588 0225 50       		.byte	0x50
 4589 0226 80000000 		.4byte	.LVL40
 4590 022a 28030000 		.4byte	.LFE19
 4591 022e 0400     		.2byte	0x4
 4592 0230 F3       		.byte	0xf3
 4593 0231 01       		.uleb128 0x1
 4594 0232 50       		.byte	0x50
 4595 0233 9F       		.byte	0x9f
 4596 0234 00000000 		.4byte	0
 4597 0238 00000000 		.4byte	0
 4598              	.LLST12:
 4599 023c 08000000 		.4byte	.LVL70
 4600 0240 B2000000 		.4byte	.LVL74
 4601 0244 0100     		.2byte	0x1
 4602 0246 56       		.byte	0x56
 4603 0247 00000000 		.4byte	0
 4604 024b 00000000 		.4byte	0
 4605              	.LLST13:
 4606 024f 08000000 		.4byte	.LVL78
 4607 0253 CE000000 		.4byte	.LVL81
 4608 0257 0100     		.2byte	0x1
 4609 0259 56       		.byte	0x56
ARM GAS  C:\Users\student\AppData\Local\Temp\ccHj2j2l.s 			page 120


 4610 025a 00000000 		.4byte	0
 4611 025e 00000000 		.4byte	0
 4612              	.LLST14:
 4613 0262 00000000 		.4byte	.LVL82
 4614 0266 0A000000 		.4byte	.LVL84
 4615 026a 0100     		.2byte	0x1
 4616 026c 50       		.byte	0x50
 4617 026d 0A000000 		.4byte	.LVL84
 4618 0271 18000000 		.4byte	.LFE4
 4619 0275 0400     		.2byte	0x4
 4620 0277 F3       		.byte	0xf3
 4621 0278 01       		.uleb128 0x1
 4622 0279 50       		.byte	0x50
 4623 027a 9F       		.byte	0x9f
 4624 027b 00000000 		.4byte	0
 4625 027f 00000000 		.4byte	0
 4626              	.LLST15:
 4627 0283 08000000 		.4byte	.LVL83
 4628 0287 10000000 		.4byte	.LVL85
 4629 028b 0100     		.2byte	0x1
 4630 028d 53       		.byte	0x53
 4631 028e 10000000 		.4byte	.LVL85
 4632 0292 18000000 		.4byte	.LFE4
 4633 0296 0100     		.2byte	0x1
 4634 0298 50       		.byte	0x50
 4635 0299 00000000 		.4byte	0
 4636 029d 00000000 		.4byte	0
 4637              	.LLST16:
 4638 02a1 00000000 		.4byte	.LVL86
 4639 02a5 0C000000 		.4byte	.LVL88
 4640 02a9 0100     		.2byte	0x1
 4641 02ab 50       		.byte	0x50
 4642 02ac 0C000000 		.4byte	.LVL88
 4643 02b0 18000000 		.4byte	.LFE5
 4644 02b4 0400     		.2byte	0x4
 4645 02b6 F3       		.byte	0xf3
 4646 02b7 01       		.uleb128 0x1
 4647 02b8 50       		.byte	0x50
 4648 02b9 9F       		.byte	0x9f
 4649 02ba 00000000 		.4byte	0
 4650 02be 00000000 		.4byte	0
 4651              	.LLST17:
 4652 02c2 08000000 		.4byte	.LVL87
 4653 02c6 0E000000 		.4byte	.LVL89
 4654 02ca 0100     		.2byte	0x1
 4655 02cc 53       		.byte	0x53
 4656 02cd 0E000000 		.4byte	.LVL89
 4657 02d1 18000000 		.4byte	.LFE5
 4658 02d5 0100     		.2byte	0x1
 4659 02d7 50       		.byte	0x50
 4660 02d8 00000000 		.4byte	0
 4661 02dc 00000000 		.4byte	0
 4662              	.LLST18:
 4663 02e0 00000000 		.4byte	.LVL90
 4664 02e4 10000000 		.4byte	.LVL92
 4665 02e8 0100     		.2byte	0x1
 4666 02ea 50       		.byte	0x50
ARM GAS  C:\Users\student\AppData\Local\Temp\ccHj2j2l.s 			page 121


 4667 02eb 10000000 		.4byte	.LVL92
 4668 02ef 24000000 		.4byte	.LVL96
 4669 02f3 0100     		.2byte	0x1
 4670 02f5 54       		.byte	0x54
 4671 02f6 24000000 		.4byte	.LVL96
 4672 02fa 74000000 		.4byte	.LFE6
 4673 02fe 0600     		.2byte	0x6
 4674 0300 F3       		.byte	0xf3
 4675 0301 03       		.uleb128 0x3
 4676 0302 F5       		.byte	0xf5
 4677 0303 00       		.uleb128 0
 4678 0304 25       		.uleb128 0x25
 4679 0305 9F       		.byte	0x9f
 4680 0306 00000000 		.4byte	0
 4681 030a 00000000 		.4byte	0
 4682              	.LLST19:
 4683 030e 0A000000 		.4byte	.LVL91
 4684 0312 13000000 		.4byte	.LVL93-1
 4685 0316 0A00     		.2byte	0xa
 4686 0318 73       		.byte	0x73
 4687 0319 00       		.sleb128 0
 4688 031a 32       		.byte	0x32
 4689 031b 24       		.byte	0x24
 4690 031c 03       		.byte	0x3
 4691 031d 00000000 		.4byte	.LANCHOR0
 4692 0321 22       		.byte	0x22
 4693 0322 44000000 		.4byte	.LVL101
 4694 0326 56000000 		.4byte	.LVL103
 4695 032a 0100     		.2byte	0x1
 4696 032c 50       		.byte	0x50
 4697 032d 56000000 		.4byte	.LVL103
 4698 0331 58000000 		.4byte	.LVL104
 4699 0335 0700     		.2byte	0x7
 4700 0337 73       		.byte	0x73
 4701 0338 00       		.sleb128 0
 4702 0339 32       		.byte	0x32
 4703 033a 24       		.byte	0x24
 4704 033b 72       		.byte	0x72
 4705 033c 00       		.sleb128 0
 4706 033d 22       		.byte	0x22
 4707 033e 00000000 		.4byte	0
 4708 0342 00000000 		.4byte	0
 4709              	.LLST20:
 4710 0346 54000000 		.4byte	.LVL102
 4711 034a 58000000 		.4byte	.LVL104
 4712 034e 0200     		.2byte	0x2
 4713 0350 30       		.byte	0x30
 4714 0351 9F       		.byte	0x9f
 4715 0352 5A000000 		.4byte	.LVL105
 4716 0356 74000000 		.4byte	.LFE6
 4717 035a 0100     		.2byte	0x1
 4718 035c 50       		.byte	0x50
 4719 035d 00000000 		.4byte	0
 4720 0361 00000000 		.4byte	0
 4721              	.LLST21:
 4722 0365 1C000000 		.4byte	.LVL94
 4723 0369 21000000 		.4byte	.LVL95-1
ARM GAS  C:\Users\student\AppData\Local\Temp\ccHj2j2l.s 			page 122


 4724 036d 0100     		.2byte	0x1
 4725 036f 50       		.byte	0x50
 4726 0370 24000000 		.4byte	.LVL96
 4727 0374 27000000 		.4byte	.LVL97-1
 4728 0378 0100     		.2byte	0x1
 4729 037a 50       		.byte	0x50
 4730 037b 27000000 		.4byte	.LVL97-1
 4731 037f 3E000000 		.4byte	.LVL99
 4732 0383 0100     		.2byte	0x1
 4733 0385 54       		.byte	0x54
 4734 0386 3E000000 		.4byte	.LVL99
 4735 038a 41000000 		.4byte	.LVL100-1
 4736 038e 0100     		.2byte	0x1
 4737 0390 50       		.byte	0x50
 4738 0391 58000000 		.4byte	.LVL104
 4739 0395 5C000000 		.4byte	.LVL106
 4740 0399 0100     		.2byte	0x1
 4741 039b 54       		.byte	0x54
 4742 039c 00000000 		.4byte	0
 4743 03a0 00000000 		.4byte	0
 4744              	.LLST22:
 4745 03a4 06000000 		.4byte	.LVL107
 4746 03a8 14000000 		.4byte	.LVL109
 4747 03ac 0100     		.2byte	0x1
 4748 03ae 53       		.byte	0x53
 4749 03af 00000000 		.4byte	0
 4750 03b3 00000000 		.4byte	0
 4751              	.LLST23:
 4752 03b7 0C000000 		.4byte	.LVL108
 4753 03bb 16000000 		.4byte	.LVL110
 4754 03bf 0100     		.2byte	0x1
 4755 03c1 50       		.byte	0x50
 4756 03c2 18000000 		.4byte	.LVL111
 4757 03c6 24000000 		.4byte	.LFE7
 4758 03ca 0100     		.2byte	0x1
 4759 03cc 50       		.byte	0x50
 4760 03cd 00000000 		.4byte	0
 4761 03d1 00000000 		.4byte	0
 4762              	.LLST24:
 4763 03d5 00000000 		.4byte	.LVL112
 4764 03d9 24000000 		.4byte	.LVL116
 4765 03dd 0100     		.2byte	0x1
 4766 03df 50       		.byte	0x50
 4767 03e0 24000000 		.4byte	.LVL116
 4768 03e4 30000000 		.4byte	.LFE10
 4769 03e8 0400     		.2byte	0x4
 4770 03ea F3       		.byte	0xf3
 4771 03eb 01       		.uleb128 0x1
 4772 03ec 50       		.byte	0x50
 4773 03ed 9F       		.byte	0x9f
 4774 03ee 00000000 		.4byte	0
 4775 03f2 00000000 		.4byte	0
 4776              	.LLST25:
 4777 03f6 10000000 		.4byte	.LVL113
 4778 03fa 12000000 		.4byte	.LVL114
 4779 03fe 0100     		.2byte	0x1
 4780 0400 53       		.byte	0x53
ARM GAS  C:\Users\student\AppData\Local\Temp\ccHj2j2l.s 			page 123


 4781 0401 1A000000 		.4byte	.LVL115
 4782 0405 30000000 		.4byte	.LFE10
 4783 0409 0100     		.2byte	0x1
 4784 040b 53       		.byte	0x53
 4785 040c 00000000 		.4byte	0
 4786 0410 00000000 		.4byte	0
 4787              	.LLST26:
 4788 0414 08000000 		.4byte	.LVL117
 4789 0418 12000000 		.4byte	.LVL119
 4790 041c 0100     		.2byte	0x1
 4791 041e 53       		.byte	0x53
 4792 041f 16000000 		.4byte	.LVL120
 4793 0423 1C000000 		.4byte	.LVL121
 4794 0427 0100     		.2byte	0x1
 4795 0429 53       		.byte	0x53
 4796 042a 00000000 		.4byte	0
 4797 042e 00000000 		.4byte	0
 4798              	.LLST27:
 4799 0432 12000000 		.4byte	.LVL124
 4800 0436 14000000 		.4byte	.LVL125
 4801 043a 0100     		.2byte	0x1
 4802 043c 50       		.byte	0x50
 4803 043d 18000000 		.4byte	.LVL126
 4804 0441 20000000 		.4byte	.LVL127
 4805 0445 0100     		.2byte	0x1
 4806 0447 52       		.byte	0x52
 4807 0448 20000000 		.4byte	.LVL127
 4808 044c 50000000 		.4byte	.LFE12
 4809 0450 0100     		.2byte	0x1
 4810 0452 50       		.byte	0x50
 4811 0453 00000000 		.4byte	0
 4812 0457 00000000 		.4byte	0
 4813              	.LLST28:
 4814 045b 08000000 		.4byte	.LVL122
 4815 045f 0E000000 		.4byte	.LVL123
 4816 0463 0100     		.2byte	0x1
 4817 0465 53       		.byte	0x53
 4818 0466 14000000 		.4byte	.LVL125
 4819 046a 26000000 		.4byte	.LVL128
 4820 046e 0100     		.2byte	0x1
 4821 0470 53       		.byte	0x53
 4822 0471 00000000 		.4byte	0
 4823 0475 00000000 		.4byte	0
 4824              	.LLST29:
 4825 0479 10000000 		.4byte	.LVL131
 4826 047d 1A000000 		.4byte	.LVL132
 4827 0481 0700     		.2byte	0x7
 4828 0483 70       		.byte	0x70
 4829 0484 00       		.sleb128 0
 4830 0485 0A       		.byte	0xa
 4831 0486 FFFF     		.2byte	0xffff
 4832 0488 1A       		.byte	0x1a
 4833 0489 9F       		.byte	0x9f
 4834 048a 1A000000 		.4byte	.LVL132
 4835 048e 1C000000 		.4byte	.LVL133
 4836 0492 0100     		.2byte	0x1
 4837 0494 50       		.byte	0x50
ARM GAS  C:\Users\student\AppData\Local\Temp\ccHj2j2l.s 			page 124


 4838 0495 24000000 		.4byte	.LVL135
 4839 0499 2C000000 		.4byte	.LVL136
 4840 049d 0700     		.2byte	0x7
 4841 049f 70       		.byte	0x70
 4842 04a0 00       		.sleb128 0
 4843 04a1 0A       		.byte	0xa
 4844 04a2 FFFF     		.2byte	0xffff
 4845 04a4 1A       		.byte	0x1a
 4846 04a5 9F       		.byte	0x9f
 4847 04a6 2C000000 		.4byte	.LVL136
 4848 04aa 34000000 		.4byte	.LVL137
 4849 04ae 0100     		.2byte	0x1
 4850 04b0 53       		.byte	0x53
 4851 04b1 34000000 		.4byte	.LVL137
 4852 04b5 36000000 		.4byte	.LVL138
 4853 04b9 0100     		.2byte	0x1
 4854 04bb 50       		.byte	0x50
 4855 04bc 3C000000 		.4byte	.LVL140
 4856 04c0 44000000 		.4byte	.LVL141
 4857 04c4 0100     		.2byte	0x1
 4858 04c6 53       		.byte	0x53
 4859 04c7 44000000 		.4byte	.LVL141
 4860 04cb 6C000000 		.4byte	.LFE13
 4861 04cf 0100     		.2byte	0x1
 4862 04d1 50       		.byte	0x50
 4863 04d2 00000000 		.4byte	0
 4864 04d6 00000000 		.4byte	0
 4865              	.LLST30:
 4866 04da 08000000 		.4byte	.LVL129
 4867 04de 0E000000 		.4byte	.LVL130
 4868 04e2 0100     		.2byte	0x1
 4869 04e4 53       		.byte	0x53
 4870 04e5 1C000000 		.4byte	.LVL133
 4871 04e9 22000000 		.4byte	.LVL134
 4872 04ed 0100     		.2byte	0x1
 4873 04ef 53       		.byte	0x53
 4874 04f0 36000000 		.4byte	.LVL138
 4875 04f4 38000000 		.4byte	.LVL139
 4876 04f8 0100     		.2byte	0x1
 4877 04fa 53       		.byte	0x53
 4878 04fb 00000000 		.4byte	0
 4879 04ff 00000000 		.4byte	0
 4880              	.LLST31:
 4881 0503 00000000 		.4byte	.LVL144
 4882 0507 06000000 		.4byte	.LVL145
 4883 050b 0100     		.2byte	0x1
 4884 050d 50       		.byte	0x50
 4885 050e 06000000 		.4byte	.LVL145
 4886 0512 0E000000 		.4byte	.LVL146
 4887 0516 0100     		.2byte	0x1
 4888 0518 50       		.byte	0x50
 4889 0519 00000000 		.4byte	0
 4890 051d 00000000 		.4byte	0
 4891              	.LLST32:
 4892 0521 00000000 		.4byte	.LVL148
 4893 0525 06000000 		.4byte	.LVL149
 4894 0529 0100     		.2byte	0x1
ARM GAS  C:\Users\student\AppData\Local\Temp\ccHj2j2l.s 			page 125


 4895 052b 50       		.byte	0x50
 4896 052c 06000000 		.4byte	.LVL149
 4897 0530 08000000 		.4byte	.LVL150
 4898 0534 0600     		.2byte	0x6
 4899 0536 70       		.byte	0x70
 4900 0537 00       		.sleb128 0
 4901 0538 73       		.byte	0x73
 4902 0539 00       		.sleb128 0
 4903 053a 1C       		.byte	0x1c
 4904 053b 9F       		.byte	0x9f
 4905 053c 08000000 		.4byte	.LVL150
 4906 0540 0B000000 		.4byte	.LVL151-1
 4907 0544 0100     		.2byte	0x1
 4908 0546 50       		.byte	0x50
 4909 0547 00000000 		.4byte	0
 4910 054b 00000000 		.4byte	0
 4911              	.LLST33:
 4912 054f 00000000 		.4byte	.LVL154
 4913 0553 4C000000 		.4byte	.LVL161
 4914 0557 0100     		.2byte	0x1
 4915 0559 50       		.byte	0x50
 4916 055a 4C000000 		.4byte	.LVL161
 4917 055e 78000000 		.4byte	.LFE18
 4918 0562 0400     		.2byte	0x4
 4919 0564 F3       		.byte	0xf3
 4920 0565 01       		.uleb128 0x1
 4921 0566 50       		.byte	0x50
 4922 0567 9F       		.byte	0x9f
 4923 0568 00000000 		.4byte	0
 4924 056c 00000000 		.4byte	0
 4925              	.LLST34:
 4926 0570 5C000000 		.4byte	.LVL162
 4927 0574 5E000000 		.4byte	.LVL163
 4928 0578 0600     		.2byte	0x6
 4929 057a 73       		.byte	0x73
 4930 057b 00       		.sleb128 0
 4931 057c 70       		.byte	0x70
 4932 057d 00       		.sleb128 0
 4933 057e 1C       		.byte	0x1c
 4934 057f 9F       		.byte	0x9f
 4935 0580 5E000000 		.4byte	.LVL163
 4936 0584 78000000 		.4byte	.LFE18
 4937 0588 0100     		.2byte	0x1
 4938 058a 50       		.byte	0x50
 4939 058b 00000000 		.4byte	0
 4940 058f 00000000 		.4byte	0
 4941              	.LLST35:
 4942 0593 34000000 		.4byte	.LVL156
 4943 0597 3A000000 		.4byte	.LVL157
 4944 059b 0600     		.2byte	0x6
 4945 059d 0C       		.byte	0xc
 4946 059e 40420F00 		.4byte	0xf4240
 4947 05a2 9F       		.byte	0x9f
 4948 05a3 40000000 		.4byte	.LVL158
 4949 05a7 62000000 		.4byte	.LVL164
 4950 05ab 0100     		.2byte	0x1
 4951 05ad 54       		.byte	0x54
ARM GAS  C:\Users\student\AppData\Local\Temp\ccHj2j2l.s 			page 126


 4952 05ae 00000000 		.4byte	0
 4953 05b2 00000000 		.4byte	0
 4954              	.LLST36:
 4955 05b6 34000000 		.4byte	.LVL156
 4956 05ba 3A000000 		.4byte	.LVL157
 4957 05be 0200     		.2byte	0x2
 4958 05c0 31       		.byte	0x31
 4959 05c1 9F       		.byte	0x9f
 4960 05c2 40000000 		.4byte	.LVL158
 4961 05c6 78000000 		.4byte	.LFE18
 4962 05ca 0100     		.2byte	0x1
 4963 05cc 51       		.byte	0x51
 4964 05cd 00000000 		.4byte	0
 4965 05d1 00000000 		.4byte	0
 4966              	.LLST37:
 4967 05d5 24000000 		.4byte	.LVL155
 4968 05d9 42000000 		.4byte	.LVL159
 4969 05dd 0100     		.2byte	0x1
 4970 05df 53       		.byte	0x53
 4971 05e0 00000000 		.4byte	0
 4972 05e4 00000000 		.4byte	0
 4973              	.LLST38:
 4974 05e8 00000000 		.4byte	.LVL165
 4975 05ec 21000000 		.4byte	.LVL166-1
 4976 05f0 0100     		.2byte	0x1
 4977 05f2 50       		.byte	0x50
 4978 05f3 21000000 		.4byte	.LVL166-1
 4979 05f7 4C000000 		.4byte	.LVL170
 4980 05fb 0400     		.2byte	0x4
 4981 05fd F3       		.byte	0xf3
 4982 05fe 01       		.uleb128 0x1
 4983 05ff 50       		.byte	0x50
 4984 0600 9F       		.byte	0x9f
 4985 0601 4C000000 		.4byte	.LVL170
 4986 0605 4E000000 		.4byte	.LVL171
 4987 0609 0100     		.2byte	0x1
 4988 060b 50       		.byte	0x50
 4989 060c 4E000000 		.4byte	.LVL171
 4990 0610 64000000 		.4byte	.LFE20
 4991 0614 0400     		.2byte	0x4
 4992 0616 F3       		.byte	0xf3
 4993 0617 01       		.uleb128 0x1
 4994 0618 50       		.byte	0x50
 4995 0619 9F       		.byte	0x9f
 4996 061a 00000000 		.4byte	0
 4997 061e 00000000 		.4byte	0
 4998              	.LLST39:
 4999 0622 00000000 		.4byte	.LVL165
 5000 0626 21000000 		.4byte	.LVL166-1
 5001 062a 0100     		.2byte	0x1
 5002 062c 51       		.byte	0x51
 5003 062d 21000000 		.4byte	.LVL166-1
 5004 0631 4C000000 		.4byte	.LVL170
 5005 0635 0400     		.2byte	0x4
 5006 0637 F3       		.byte	0xf3
 5007 0638 01       		.uleb128 0x1
 5008 0639 51       		.byte	0x51
ARM GAS  C:\Users\student\AppData\Local\Temp\ccHj2j2l.s 			page 127


 5009 063a 9F       		.byte	0x9f
 5010 063b 4C000000 		.4byte	.LVL170
 5011 063f 51000000 		.4byte	.LVL172-1
 5012 0643 0100     		.2byte	0x1
 5013 0645 51       		.byte	0x51
 5014 0646 51000000 		.4byte	.LVL172-1
 5015 064a 64000000 		.4byte	.LFE20
 5016 064e 0400     		.2byte	0x4
 5017 0650 F3       		.byte	0xf3
 5018 0651 01       		.uleb128 0x1
 5019 0652 51       		.byte	0x51
 5020 0653 9F       		.byte	0x9f
 5021 0654 00000000 		.4byte	0
 5022 0658 00000000 		.4byte	0
 5023              	.LLST40:
 5024 065c 1C000000 		.4byte	.LVL176
 5025 0660 24000000 		.4byte	.LVL178
 5026 0664 0100     		.2byte	0x1
 5027 0666 54       		.byte	0x54
 5028 0667 00000000 		.4byte	0
 5029 066b 00000000 		.4byte	0
 5030              	.LLST41:
 5031 066f 1C000000 		.4byte	.LVL182
 5032 0673 24000000 		.4byte	.LVL184
 5033 0677 0100     		.2byte	0x1
 5034 0679 54       		.byte	0x54
 5035 067a 00000000 		.4byte	0
 5036 067e 00000000 		.4byte	0
 5037              	.LLST42:
 5038 0682 1C000000 		.4byte	.LVL188
 5039 0686 1F000000 		.4byte	.LVL189-1
 5040 068a 0100     		.2byte	0x1
 5041 068c 50       		.byte	0x50
 5042 068d 1F000000 		.4byte	.LVL189-1
 5043 0691 24000000 		.4byte	.LVL190
 5044 0695 0100     		.2byte	0x1
 5045 0697 54       		.byte	0x54
 5046 0698 24000000 		.4byte	.LVL190
 5047 069c 28000000 		.4byte	.LFE25
 5048 06a0 0100     		.2byte	0x1
 5049 06a2 50       		.byte	0x50
 5050 06a3 00000000 		.4byte	0
 5051 06a7 00000000 		.4byte	0
 5052              		.section	.debug_aranges,"",%progbits
 5053 0000 E4000000 		.4byte	0xe4
 5054 0004 0200     		.2byte	0x2
 5055 0006 00000000 		.4byte	.Ldebug_info0
 5056 000a 04       		.byte	0x4
 5057 000b 00       		.byte	0
 5058 000c 0000     		.2byte	0
 5059 000e 0000     		.2byte	0
 5060 0010 00000000 		.4byte	.LFB21
 5061 0014 D0000000 		.4byte	.LFE21-.LFB21
 5062 0018 00000000 		.4byte	.LFB22
 5063 001c 4C000000 		.4byte	.LFE22-.LFB22
 5064 0020 00000000 		.4byte	.LFB19
 5065 0024 28030000 		.4byte	.LFE19-.LFB19
ARM GAS  C:\Users\student\AppData\Local\Temp\ccHj2j2l.s 			page 128


 5066 0028 00000000 		.4byte	.LFB0
 5067 002c 08010000 		.4byte	.LFE0-.LFB0
 5068 0030 00000000 		.4byte	.LFB1
 5069 0034 D8000000 		.4byte	.LFE1-.LFB1
 5070 0038 00000000 		.4byte	.LFB2
 5071 003c 28000000 		.4byte	.LFE2-.LFB2
 5072 0040 00000000 		.4byte	.LFB3
 5073 0044 E4000000 		.4byte	.LFE3-.LFB3
 5074 0048 00000000 		.4byte	.LFB4
 5075 004c 18000000 		.4byte	.LFE4-.LFB4
 5076 0050 00000000 		.4byte	.LFB5
 5077 0054 18000000 		.4byte	.LFE5-.LFB5
 5078 0058 00000000 		.4byte	.LFB6
 5079 005c 74000000 		.4byte	.LFE6-.LFB6
 5080 0060 00000000 		.4byte	.LFB7
 5081 0064 24000000 		.4byte	.LFE7-.LFB7
 5082 0068 00000000 		.4byte	.LFB8
 5083 006c 10000000 		.4byte	.LFE8-.LFB8
 5084 0070 00000000 		.4byte	.LFB9
 5085 0074 10000000 		.4byte	.LFE9-.LFB9
 5086 0078 00000000 		.4byte	.LFB10
 5087 007c 30000000 		.4byte	.LFE10-.LFB10
 5088 0080 00000000 		.4byte	.LFB11
 5089 0084 48000000 		.4byte	.LFE11-.LFB11
 5090 0088 00000000 		.4byte	.LFB12
 5091 008c 50000000 		.4byte	.LFE12-.LFB12
 5092 0090 00000000 		.4byte	.LFB13
 5093 0094 6C000000 		.4byte	.LFE13-.LFB13
 5094 0098 00000000 		.4byte	.LFB14
 5095 009c 0C000000 		.4byte	.LFE14-.LFB14
 5096 00a0 00000000 		.4byte	.LFB15
 5097 00a4 0C000000 		.4byte	.LFE15-.LFB15
 5098 00a8 00000000 		.4byte	.LFB16
 5099 00ac 24000000 		.4byte	.LFE16-.LFB16
 5100 00b0 00000000 		.4byte	.LFB17
 5101 00b4 28000000 		.4byte	.LFE17-.LFB17
 5102 00b8 00000000 		.4byte	.LFB18
 5103 00bc 78000000 		.4byte	.LFE18-.LFB18
 5104 00c0 00000000 		.4byte	.LFB20
 5105 00c4 64000000 		.4byte	.LFE20-.LFB20
 5106 00c8 00000000 		.4byte	.LFB23
 5107 00cc 28000000 		.4byte	.LFE23-.LFB23
 5108 00d0 00000000 		.4byte	.LFB24
 5109 00d4 28000000 		.4byte	.LFE24-.LFB24
 5110 00d8 00000000 		.4byte	.LFB25
 5111 00dc 28000000 		.4byte	.LFE25-.LFB25
 5112 00e0 00000000 		.4byte	0
 5113 00e4 00000000 		.4byte	0
 5114              		.section	.debug_ranges,"",%progbits
 5115              	.Ldebug_ranges0:
 5116 0000 00000000 		.4byte	.LFB21
 5117 0004 D0000000 		.4byte	.LFE21
 5118 0008 00000000 		.4byte	.LFB22
 5119 000c 4C000000 		.4byte	.LFE22
 5120 0010 00000000 		.4byte	.LFB19
 5121 0014 28030000 		.4byte	.LFE19
 5122 0018 00000000 		.4byte	.LFB0
ARM GAS  C:\Users\student\AppData\Local\Temp\ccHj2j2l.s 			page 129


 5123 001c 08010000 		.4byte	.LFE0
 5124 0020 00000000 		.4byte	.LFB1
 5125 0024 D8000000 		.4byte	.LFE1
 5126 0028 00000000 		.4byte	.LFB2
 5127 002c 28000000 		.4byte	.LFE2
 5128 0030 00000000 		.4byte	.LFB3
 5129 0034 E4000000 		.4byte	.LFE3
 5130 0038 00000000 		.4byte	.LFB4
 5131 003c 18000000 		.4byte	.LFE4
 5132 0040 00000000 		.4byte	.LFB5
 5133 0044 18000000 		.4byte	.LFE5
 5134 0048 00000000 		.4byte	.LFB6
 5135 004c 74000000 		.4byte	.LFE6
 5136 0050 00000000 		.4byte	.LFB7
 5137 0054 24000000 		.4byte	.LFE7
 5138 0058 00000000 		.4byte	.LFB8
 5139 005c 10000000 		.4byte	.LFE8
 5140 0060 00000000 		.4byte	.LFB9
 5141 0064 10000000 		.4byte	.LFE9
 5142 0068 00000000 		.4byte	.LFB10
 5143 006c 30000000 		.4byte	.LFE10
 5144 0070 00000000 		.4byte	.LFB11
 5145 0074 48000000 		.4byte	.LFE11
 5146 0078 00000000 		.4byte	.LFB12
 5147 007c 50000000 		.4byte	.LFE12
 5148 0080 00000000 		.4byte	.LFB13
 5149 0084 6C000000 		.4byte	.LFE13
 5150 0088 00000000 		.4byte	.LFB14
 5151 008c 0C000000 		.4byte	.LFE14
 5152 0090 00000000 		.4byte	.LFB15
 5153 0094 0C000000 		.4byte	.LFE15
 5154 0098 00000000 		.4byte	.LFB16
 5155 009c 24000000 		.4byte	.LFE16
 5156 00a0 00000000 		.4byte	.LFB17
 5157 00a4 28000000 		.4byte	.LFE17
 5158 00a8 00000000 		.4byte	.LFB18
 5159 00ac 78000000 		.4byte	.LFE18
 5160 00b0 00000000 		.4byte	.LFB20
 5161 00b4 64000000 		.4byte	.LFE20
 5162 00b8 00000000 		.4byte	.LFB23
 5163 00bc 28000000 		.4byte	.LFE23
 5164 00c0 00000000 		.4byte	.LFB24
 5165 00c4 28000000 		.4byte	.LFE24
 5166 00c8 00000000 		.4byte	.LFB25
 5167 00cc 28000000 		.4byte	.LFE25
 5168 00d0 00000000 		.4byte	0
 5169 00d4 00000000 		.4byte	0
 5170              		.section	.debug_line,"",%progbits
 5171              	.Ldebug_line0:
 5172 0000 E6030000 		.section	.debug_str,"MS",%progbits,1
 5172      02009D00 
 5172      00000201 
 5172      FB0E0D00 
 5172      01010101 
 5173              	.LASF11:
 5174 0000 75696E74 		.ascii	"uint16\000"
 5174      313600
ARM GAS  C:\Users\student\AppData\Local\Temp\ccHj2j2l.s 			page 130


 5175              	.LASF67:
 5176 0007 61646347 		.ascii	"adcGain\000"
 5176      61696E00 
 5177              	.LASF92:
 5178 000f 43794578 		.ascii	"CyExitCriticalSection\000"
 5178      69744372 
 5178      69746963 
 5178      616C5365 
 5178      6374696F 
 5179              	.LASF27:
 5180 0025 696E7075 		.ascii	"inputRange\000"
 5180      7452616E 
 5180      676500
 5181              	.LASF73:
 5182 0030 42504D5F 		.ascii	"BPM_ADC_CountsTo_uVolts\000"
 5182      4144435F 
 5182      436F756E 
 5182      7473546F 
 5182      5F75566F 
 5183              	.LASF24:
 5184 0048 67636F72 		.ascii	"gcor\000"
 5184      00
 5185              	.LASF62:
 5186 004d 42504D5F 		.ascii	"BPM_ADC_GetResult16\000"
 5186      4144435F 
 5186      47657452 
 5186      6573756C 
 5186      74313600 
 5187              	.LASF53:
 5188 0061 42504D5F 		.ascii	"BPM_ADC_SetGCOR\000"
 5188      4144435F 
 5188      53657447 
 5188      434F5200 
 5189              	.LASF8:
 5190 0071 6C6F6E67 		.ascii	"long long unsigned int\000"
 5190      206C6F6E 
 5190      6720756E 
 5190      7369676E 
 5190      65642069 
 5191              	.LASF54:
 5192 0088 42504D5F 		.ascii	"BPM_ADC_ReadGCOR\000"
 5192      4144435F 
 5192      52656164 
 5192      47434F52 
 5192      00
 5193              	.LASF37:
 5194 0099 42504D5F 		.ascii	"BPM_ADC_SetDSMRef0Reg\000"
 5194      4144435F 
 5194      53657444 
 5194      534D5265 
 5194      66305265 
 5195              	.LASF29:
 5196 00af 69646561 		.ascii	"idealOddDecGain\000"
 5196      6C4F6464 
 5196      44656347 
 5196      61696E00 
 5197              	.LASF81:
ARM GAS  C:\Users\student\AppData\Local\Temp\ccHj2j2l.s 			page 131


 5198 00bf 42504D5F 		.ascii	"BPM_ADC_Read32\000"
 5198      4144435F 
 5198      52656164 
 5198      333200
 5199              	.LASF66:
 5200 00ce 42504D5F 		.ascii	"BPM_ADC_SetGain\000"
 5200      4144435F 
 5200      53657447 
 5200      61696E00 
 5201              	.LASF7:
 5202 00de 6C6F6E67 		.ascii	"long long int\000"
 5202      206C6F6E 
 5202      6720696E 
 5202      7400
 5203              	.LASF1:
 5204 00ec 7369676E 		.ascii	"signed char\000"
 5204      65642063 
 5204      68617200 
 5205              	.LASF15:
 5206 00f8 696E7433 		.ascii	"int32\000"
 5206      3200
 5207              	.LASF5:
 5208 00fe 6C6F6E67 		.ascii	"long int\000"
 5208      20696E74 
 5208      00
 5209              	.LASF41:
 5210 0107 42504D5F 		.ascii	"BPM_ADC_Init\000"
 5210      4144435F 
 5210      496E6974 
 5210      00
 5211              	.LASF20:
 5212 0114 72656731 		.ascii	"reg16\000"
 5212      3600
 5213              	.LASF10:
 5214 011a 75696E74 		.ascii	"uint8\000"
 5214      3800
 5215              	.LASF40:
 5216 0120 42504D5F 		.ascii	"BPM_ADC_InitConfig\000"
 5216      4144435F 
 5216      496E6974 
 5216      436F6E66 
 5216      696700
 5217              	.LASF91:
 5218 0133 43794465 		.ascii	"CyDelayUs\000"
 5218      6C617955 
 5218      7300
 5219              	.LASF17:
 5220 013d 646F7562 		.ascii	"double\000"
 5220      6C6500
 5221              	.LASF43:
 5222 0144 42504D5F 		.ascii	"BPM_ADC_Start\000"
 5222      4144435F 
 5222      53746172 
 5222      7400
 5223              	.LASF72:
 5224 0152 566F6C74 		.ascii	"Volts\000"
 5224      7300
ARM GAS  C:\Users\student\AppData\Local\Temp\ccHj2j2l.s 			page 132


 5225              	.LASF77:
 5226 0158 42504D5F 		.ascii	"BPM_ADC_SelectConfiguration\000"
 5226      4144435F 
 5226      53656C65 
 5226      6374436F 
 5226      6E666967 
 5227              	.LASF12:
 5228 0174 75696E74 		.ascii	"uint32\000"
 5228      333200
 5229              	.LASF102:
 5230 017b 4379496E 		.ascii	"CyIntSetVector\000"
 5230      74536574 
 5230      56656374 
 5230      6F7200
 5231              	.LASF79:
 5232 018a 42504D5F 		.ascii	"BPM_ADC_Read8\000"
 5232      4144435F 
 5232      52656164 
 5232      3800
 5233              	.LASF96:
 5234 0198 42504D5F 		.ascii	"BPM_ADC_Ext_CP_Clk_SetModeRegister\000"
 5234      4144435F 
 5234      4578745F 
 5234      43505F43 
 5234      6C6B5F53 
 5235              	.LASF38:
 5236 01bb 76616C75 		.ascii	"value\000"
 5236      6500
 5237              	.LASF84:
 5238 01c1 42504D5F 		.ascii	"BPM_ADC_convDone\000"
 5238      4144435F 
 5238      636F6E76 
 5238      446F6E65 
 5238      00
 5239              	.LASF59:
 5240 01d2 7265744D 		.ascii	"retMode\000"
 5240      6F646500 
 5241              	.LASF94:
 5242 01da 42504D5F 		.ascii	"BPM_ADC_Ext_CP_Clk_SetDividerRegister\000"
 5242      4144435F 
 5242      4578745F 
 5242      43505F43 
 5242      6C6B5F53 
 5243              	.LASF63:
 5244 0200 42504D5F 		.ascii	"BPM_ADC_GetResult32\000"
 5244      4144435F 
 5244      47657452 
 5244      6573756C 
 5244      74333200 
 5245              	.LASF9:
 5246 0214 756E7369 		.ascii	"unsigned int\000"
 5246      676E6564 
 5246      20696E74 
 5246      00
 5247              	.LASF74:
 5248 0221 75566F6C 		.ascii	"uVolts\000"
 5248      747300
ARM GAS  C:\Users\student\AppData\Local\Temp\ccHj2j2l.s 			page 133


 5249              	.LASF58:
 5250 0228 42504D5F 		.ascii	"BPM_ADC_IsEndConversion\000"
 5250      4144435F 
 5250      4973456E 
 5250      64436F6E 
 5250      76657273 
 5251              	.LASF6:
 5252 0240 6C6F6E67 		.ascii	"long unsigned int\000"
 5252      20756E73 
 5252      69676E65 
 5252      6420696E 
 5252      7400
 5253              	.LASF101:
 5254 0252 4379456E 		.ascii	"CyEnterCriticalSection\000"
 5254      74657243 
 5254      72697469 
 5254      63616C53 
 5254      65637469 
 5255              	.LASF95:
 5256 0269 42504D5F 		.ascii	"BPM_ADC_theACLK_SetDividerRegister\000"
 5256      4144435F 
 5256      74686541 
 5256      434C4B5F 
 5256      53657444 
 5257              	.LASF4:
 5258 028c 73686F72 		.ascii	"short unsigned int\000"
 5258      7420756E 
 5258      7369676E 
 5258      65642069 
 5258      6E7400
 5259              	.LASF13:
 5260 029f 696E7438 		.ascii	"int8\000"
 5260      00
 5261              	.LASF68:
 5262 02a4 42504D5F 		.ascii	"BPM_ADC_CountsTo_mVolts\000"
 5262      4144435F 
 5262      436F756E 
 5262      7473546F 
 5262      5F6D566F 
 5263              	.LASF34:
 5264 02bc 67636F72 		.ascii	"gcorValue\000"
 5264      56616C75 
 5264      6500
 5265              	.LASF64:
 5266 02c6 42504D5F 		.ascii	"BPM_ADC_SetOffset\000"
 5266      4144435F 
 5266      5365744F 
 5266      66667365 
 5266      7400
 5267              	.LASF26:
 5268 02d8 42504D5F 		.ascii	"BPM_ADC_GCOR_STRUCT\000"
 5268      4144435F 
 5268      47434F52 
 5268      5F535452 
 5268      55435400 
 5269              	.LASF70:
 5270 02ec 6D566F6C 		.ascii	"mVolts\000"
ARM GAS  C:\Users\student\AppData\Local\Temp\ccHj2j2l.s 			page 134


 5270      747300
 5271              	.LASF32:
 5272 02f3 666C6173 		.ascii	"flash\000"
 5272      6800
 5273              	.LASF21:
 5274 02f9 72656733 		.ascii	"reg32\000"
 5274      3200
 5275              	.LASF57:
 5276 02ff 42504D5F 		.ascii	"BPM_ADC_StopConvert\000"
 5276      4144435F 
 5276      53746F70 
 5276      436F6E76 
 5276      65727400 
 5277              	.LASF93:
 5278 0313 42504D5F 		.ascii	"BPM_ADC_AMux_Select\000"
 5278      4144435F 
 5278      414D7578 
 5278      5F53656C 
 5278      65637400 
 5279              	.LASF16:
 5280 0327 666C6F61 		.ascii	"float32\000"
 5280      74333200 
 5281              	.LASF87:
 5282 032f 42504D5F 		.ascii	"BPM_ADC_Config\000"
 5282      4144435F 
 5282      436F6E66 
 5282      696700
 5283              	.LASF23:
 5284 033e 73697A65 		.ascii	"sizetype\000"
 5284      74797065 
 5284      00
 5285              	.LASF60:
 5286 0347 42504D5F 		.ascii	"BPM_ADC_GetResult8\000"
 5286      4144435F 
 5286      47657452 
 5286      6573756C 
 5286      743800
 5287              	.LASF88:
 5288 035a 42504D5F 		.ascii	"BPM_ADC_Offset\000"
 5288      4144435F 
 5288      4F666673 
 5288      657400
 5289              	.LASF48:
 5290 0369 42504D5F 		.ascii	"BPM_ADC_SetCoherency\000"
 5290      4144435F 
 5290      53657443 
 5290      6F686572 
 5290      656E6379 
 5291              	.LASF49:
 5292 037e 636F6865 		.ascii	"coherency\000"
 5292      72656E63 
 5292      7900
 5293              	.LASF103:
 5294 0388 4379496E 		.ascii	"CyIntSetPriority\000"
 5294      74536574 
 5294      5072696F 
 5294      72697479 
ARM GAS  C:\Users\student\AppData\Local\Temp\ccHj2j2l.s 			page 135


 5294      00
 5295              	.LASF46:
 5296 0399 6761696E 		.ascii	"gain\000"
 5296      00
 5297              	.LASF0:
 5298 039e 666C6F61 		.ascii	"float\000"
 5298      7400
 5299              	.LASF19:
 5300 03a4 72656738 		.ascii	"reg8\000"
 5300      00
 5301              	.LASF28:
 5302 03a9 69646561 		.ascii	"idealDecGain\000"
 5302      6C446563 
 5302      4761696E 
 5302      00
 5303              	.LASF33:
 5304 03b6 6E6F726D 		.ascii	"normalised\000"
 5304      616C6973 
 5304      656400
 5305              	.LASF90:
 5306 03c1 43794861 		.ascii	"CyHalt\000"
 5306      6C7400
 5307              	.LASF2:
 5308 03c8 756E7369 		.ascii	"unsigned char\000"
 5308      676E6564 
 5308      20636861 
 5308      7200
 5309              	.LASF3:
 5310 03d6 73686F72 		.ascii	"short int\000"
 5310      7420696E 
 5310      7400
 5311              	.LASF82:
 5312 03e0 42504D5F 		.ascii	"BPM_ADC_gcor\000"
 5312      4144435F 
 5312      67636F72 
 5312      00
 5313              	.LASF35:
 5314 03ed 67636F72 		.ascii	"gcorTmp\000"
 5314      546D7000 
 5315              	.LASF56:
 5316 03f5 42504D5F 		.ascii	"BPM_ADC_StartConvert\000"
 5316      4144435F 
 5316      53746172 
 5316      74436F6E 
 5316      76657274 
 5317              	.LASF71:
 5318 040a 42504D5F 		.ascii	"BPM_ADC_CountsTo_Volts\000"
 5318      4144435F 
 5318      436F756E 
 5318      7473546F 
 5318      5F566F6C 
 5319              	.LASF30:
 5320 0421 7265736F 		.ascii	"resolution\000"
 5320      6C757469 
 5320      6F6E00
 5321              	.LASF75:
 5322 042c 636F6566 		.ascii	"coefA\000"
ARM GAS  C:\Users\student\AppData\Local\Temp\ccHj2j2l.s 			page 136


 5322      4100
 5323              	.LASF76:
 5324 0432 636F6566 		.ascii	"coefB\000"
 5324      4200
 5325              	.LASF18:
 5326 0438 63686172 		.ascii	"char\000"
 5326      00
 5327              	.LASF36:
 5328 043d 42504D5F 		.ascii	"BPM_ADC_GainCompensation\000"
 5328      4144435F 
 5328      4761696E 
 5328      436F6D70 
 5328      656E7361 
 5329              	.LASF22:
 5330 0456 63796973 		.ascii	"cyisraddress\000"
 5330      72616464 
 5330      72657373 
 5330      00
 5331              	.LASF31:
 5332 0463 636F6E66 		.ascii	"config\000"
 5332      696700
 5333              	.LASF89:
 5334 046a 42504D5F 		.ascii	"BPM_ADC_CountsPerVolt\000"
 5334      4144435F 
 5334      436F756E 
 5334      74735065 
 5334      72566F6C 
 5335              	.LASF25:
 5336 0480 6776616C 		.ascii	"gval\000"
 5336      00
 5337              	.LASF44:
 5338 0485 42504D5F 		.ascii	"BPM_ADC_Stop\000"
 5338      4144435F 
 5338      53746F70 
 5338      00
 5339              	.LASF78:
 5340 0492 72657374 		.ascii	"restart\000"
 5340      61727400 
 5341              	.LASF52:
 5342 049a 746D7056 		.ascii	"tmpValue\000"
 5342      616C7565 
 5342      00
 5343              	.LASF65:
 5344 04a3 6F666673 		.ascii	"offset\000"
 5344      657400
 5345              	.LASF69:
 5346 04aa 61646343 		.ascii	"adcCounts\000"
 5346      6F756E74 
 5346      7300
 5347              	.LASF83:
 5348 04b4 42504D5F 		.ascii	"BPM_ADC_initVar\000"
 5348      4144435F 
 5348      696E6974 
 5348      56617200 
 5349              	.LASF39:
 5350 04c4 656E6162 		.ascii	"enableInterrupts\000"
 5350      6C65496E 
ARM GAS  C:\Users\student\AppData\Local\Temp\ccHj2j2l.s 			page 137


 5350      74657272 
 5350      75707473 
 5350      00
 5351              	.LASF100:
 5352 04d5 453A5C66 		.ascii	"E:\\final project\\Workspace01\\Jazzy_Dude.cydsn\000"
 5352      696E616C 
 5352      2070726F 
 5352      6A656374 
 5352      5C576F72 
 5353              	.LASF55:
 5354 0503 6756616C 		.ascii	"gValue\000"
 5354      756500
 5355              	.LASF80:
 5356 050a 42504D5F 		.ascii	"BPM_ADC_Read16\000"
 5356      4144435F 
 5356      52656164 
 5356      313600
 5357              	.LASF51:
 5358 0519 73746174 		.ascii	"status\000"
 5358      757300
 5359              	.LASF98:
 5360 0520 474E5520 		.ascii	"GNU C 4.9.3 20150303 (release) [ARM/embedded-4_9-br"
 5360      4320342E 
 5360      392E3320 
 5360      32303135 
 5360      30333033 
 5361 0553 616E6368 		.ascii	"anch revision 221220] -mcpu=cortex-m3 -mthumb -g -O"
 5361      20726576 
 5361      6973696F 
 5361      6E203232 
 5361      31323230 
 5362 0586 67202D66 		.ascii	"g -ffunction-sections -ffat-lto-objects\000"
 5362      66756E63 
 5362      74696F6E 
 5362      2D736563 
 5362      74696F6E 
 5363              	.LASF86:
 5364 05ae 42504D5F 		.ascii	"BPM_ADC_started\000"
 5364      4144435F 
 5364      73746172 
 5364      74656400 
 5365              	.LASF50:
 5366 05be 6761696E 		.ascii	"gainAdjust\000"
 5366      41646A75 
 5366      737400
 5367              	.LASF14:
 5368 05c9 696E7431 		.ascii	"int16\000"
 5368      3600
 5369              	.LASF85:
 5370 05cf 42504D5F 		.ascii	"BPM_ADC_stopConversion\000"
 5370      4144435F 
 5370      73746F70 
 5370      436F6E76 
 5370      65727369 
 5371              	.LASF42:
 5372 05e6 42504D5F 		.ascii	"BPM_ADC_Enable\000"
 5372      4144435F 
ARM GAS  C:\Users\student\AppData\Local\Temp\ccHj2j2l.s 			page 138


 5372      456E6162 
 5372      6C6500
 5373              	.LASF47:
 5374 05f5 746D7052 		.ascii	"tmpReg\000"
 5374      656700
 5375              	.LASF45:
 5376 05fc 42504D5F 		.ascii	"BPM_ADC_SetBufferGain\000"
 5376      4144435F 
 5376      53657442 
 5376      75666665 
 5376      72476169 
 5377              	.LASF61:
 5378 0612 72657375 		.ascii	"result\000"
 5378      6C7400
 5379              	.LASF97:
 5380 0619 42504D5F 		.ascii	"BPM_ADC_theACLK_SetModeRegister\000"
 5380      4144435F 
 5380      74686541 
 5380      434C4B5F 
 5380      5365744D 
 5381              	.LASF99:
 5382 0639 2E5C4765 		.ascii	".\\Generated_Source\\PSoC5\\BPM_ADC.c\000"
 5382      6E657261 
 5382      7465645F 
 5382      536F7572 
 5382      63655C50 
 5383              		.ident	"GCC: (GNU Tools for ARM Embedded Processors) 4.9.3 20150303 (release) [ARM/embedded-4_9-br
