ARM GAS  C:\Users\student\AppData\Local\Temp\ccR6LRar.s 			page 1


   1              		.syntax unified
   2              		.cpu cortex-m3
   3              		.fpu softvfp
   4              		.eabi_attribute 20, 1
   5              		.eabi_attribute 21, 1
   6              		.eabi_attribute 23, 3
   7              		.eabi_attribute 24, 1
   8              		.eabi_attribute 25, 1
   9              		.eabi_attribute 26, 1
  10              		.eabi_attribute 30, 1
  11              		.eabi_attribute 34, 1
  12              		.eabi_attribute 18, 4
  13              		.thumb
  14              		.file	"LCD_Char_1_BarGraph.c"
  15              		.text
  16              	.Ltext0:
  17              		.cfi_sections	.debug_frame
  18              		.section	.text.LCD_Char_1_LoadCustomFonts,"ax",%progbits
  19              		.align	2
  20              		.global	LCD_Char_1_LoadCustomFonts
  21              		.thumb
  22              		.thumb_func
  23              		.type	LCD_Char_1_LoadCustomFonts, %function
  24              	LCD_Char_1_LoadCustomFonts:
  25              	.LFB0:
  26              		.file 1 ".\\Generated_Source\\PSoC5\\LCD_Char_1_BarGraph.c"
   1:.\Generated_Source\PSoC5/LCD_Char_1_BarGraph.c **** /*******************************************************************************
   2:.\Generated_Source\PSoC5/LCD_Char_1_BarGraph.c **** * File Name: LCD_Char_1_BarGraph.c
   3:.\Generated_Source\PSoC5/LCD_Char_1_BarGraph.c **** * Version 2.20
   4:.\Generated_Source\PSoC5/LCD_Char_1_BarGraph.c **** *
   5:.\Generated_Source\PSoC5/LCD_Char_1_BarGraph.c **** * Description:
   6:.\Generated_Source\PSoC5/LCD_Char_1_BarGraph.c **** *  This file provides the custom character data and API for creating and using
   7:.\Generated_Source\PSoC5/LCD_Char_1_BarGraph.c **** *  bar graphs with the Character LCD component.
   8:.\Generated_Source\PSoC5/LCD_Char_1_BarGraph.c **** *
   9:.\Generated_Source\PSoC5/LCD_Char_1_BarGraph.c **** * Note:
  10:.\Generated_Source\PSoC5/LCD_Char_1_BarGraph.c **** *
  11:.\Generated_Source\PSoC5/LCD_Char_1_BarGraph.c **** ********************************************************************************
  12:.\Generated_Source\PSoC5/LCD_Char_1_BarGraph.c **** * Copyright 2008-2014, Cypress Semiconductor Corporation.  All rights reserved.
  13:.\Generated_Source\PSoC5/LCD_Char_1_BarGraph.c **** * You may use this file only in accordance with the license, terms, conditions,
  14:.\Generated_Source\PSoC5/LCD_Char_1_BarGraph.c **** * disclaimers, and limitations in the end user license agreement accompanying
  15:.\Generated_Source\PSoC5/LCD_Char_1_BarGraph.c **** * the software package with which this file was provided.
  16:.\Generated_Source\PSoC5/LCD_Char_1_BarGraph.c **** *******************************************************************************/
  17:.\Generated_Source\PSoC5/LCD_Char_1_BarGraph.c **** 
  18:.\Generated_Source\PSoC5/LCD_Char_1_BarGraph.c **** #include "LCD_Char_1.h"
  19:.\Generated_Source\PSoC5/LCD_Char_1_BarGraph.c **** 
  20:.\Generated_Source\PSoC5/LCD_Char_1_BarGraph.c **** 
  21:.\Generated_Source\PSoC5/LCD_Char_1_BarGraph.c **** uint8 const CYCODE LCD_Char_1_customFonts[] = \
  22:.\Generated_Source\PSoC5/LCD_Char_1_BarGraph.c **** {
  23:.\Generated_Source\PSoC5/LCD_Char_1_BarGraph.c ****     /* Character LCD_Char_1_CUSTOM_0   */
  24:.\Generated_Source\PSoC5/LCD_Char_1_BarGraph.c ****     0x00u,    0x00u,    0x00u,    0x00u,    0x00u,    0x00u,    0x00u,    0x1Fu, \
  25:.\Generated_Source\PSoC5/LCD_Char_1_BarGraph.c ****     /* Character LCD_Char_1_CUSTOM_1   */
  26:.\Generated_Source\PSoC5/LCD_Char_1_BarGraph.c ****     0x00u,    0x00u,    0x00u,    0x00u,    0x00u,    0x00u,    0x1Fu,    0x1Fu, \
  27:.\Generated_Source\PSoC5/LCD_Char_1_BarGraph.c ****     /* Character LCD_Char_1_CUSTOM_2   */
  28:.\Generated_Source\PSoC5/LCD_Char_1_BarGraph.c ****     0x00u,    0x00u,    0x00u,    0x00u,    0x00u,    0x1Fu,    0x1Fu,    0x1Fu, \
  29:.\Generated_Source\PSoC5/LCD_Char_1_BarGraph.c ****     /* Character LCD_Char_1_CUSTOM_3   */
  30:.\Generated_Source\PSoC5/LCD_Char_1_BarGraph.c ****     0x00u,    0x00u,    0x00u,    0x00u,    0x1Fu,    0x1Fu,    0x1Fu,    0x1Fu, \
  31:.\Generated_Source\PSoC5/LCD_Char_1_BarGraph.c ****     /* Character LCD_Char_1_CUSTOM_4   */
ARM GAS  C:\Users\student\AppData\Local\Temp\ccR6LRar.s 			page 2


  32:.\Generated_Source\PSoC5/LCD_Char_1_BarGraph.c ****     0x00u,    0x00u,    0x00u,    0x1Fu,    0x1Fu,    0x1Fu,    0x1Fu,    0x1Fu, \
  33:.\Generated_Source\PSoC5/LCD_Char_1_BarGraph.c ****     /* Character LCD_Char_1_CUSTOM_5   */
  34:.\Generated_Source\PSoC5/LCD_Char_1_BarGraph.c ****     0x00u,    0x00u,    0x1Fu,    0x1Fu,    0x1Fu,    0x1Fu,    0x1Fu,    0x1Fu, \
  35:.\Generated_Source\PSoC5/LCD_Char_1_BarGraph.c ****     /* Character LCD_Char_1_CUSTOM_6   */
  36:.\Generated_Source\PSoC5/LCD_Char_1_BarGraph.c ****     0x00u,    0x1Fu,    0x1Fu,    0x1Fu,    0x1Fu,    0x1Fu,    0x1Fu,    0x1Fu, \
  37:.\Generated_Source\PSoC5/LCD_Char_1_BarGraph.c ****     /* Character LCD_Char_1_CUSTOM_7   */
  38:.\Generated_Source\PSoC5/LCD_Char_1_BarGraph.c ****     0x1Fu,    0x1Fu,    0x1Fu,    0x1Fu,    0x1Fu,    0x1Fu,    0x1Fu,    0x1Fu \
  39:.\Generated_Source\PSoC5/LCD_Char_1_BarGraph.c **** };
  40:.\Generated_Source\PSoC5/LCD_Char_1_BarGraph.c **** 
  41:.\Generated_Source\PSoC5/LCD_Char_1_BarGraph.c **** 
  42:.\Generated_Source\PSoC5/LCD_Char_1_BarGraph.c **** /*******************************************************************************
  43:.\Generated_Source\PSoC5/LCD_Char_1_BarGraph.c **** * Function Name: LCD_Char_1_LoadCustomFonts
  44:.\Generated_Source\PSoC5/LCD_Char_1_BarGraph.c **** ********************************************************************************
  45:.\Generated_Source\PSoC5/LCD_Char_1_BarGraph.c **** *
  46:.\Generated_Source\PSoC5/LCD_Char_1_BarGraph.c **** * Summary:
  47:.\Generated_Source\PSoC5/LCD_Char_1_BarGraph.c **** *  Loads 8 custom font characters into the LCD Module for use.  Cannot use
  48:.\Generated_Source\PSoC5/LCD_Char_1_BarGraph.c **** *  characters from two different font sets at once, but font sets can be
  49:.\Generated_Source\PSoC5/LCD_Char_1_BarGraph.c **** *  switched out during runtime.
  50:.\Generated_Source\PSoC5/LCD_Char_1_BarGraph.c **** *
  51:.\Generated_Source\PSoC5/LCD_Char_1_BarGraph.c **** * Parameters:
  52:.\Generated_Source\PSoC5/LCD_Char_1_BarGraph.c **** *  customData:  pointer to a constant array of 64 bytes representing 8 custom
  53:.\Generated_Source\PSoC5/LCD_Char_1_BarGraph.c **** *               font characters.
  54:.\Generated_Source\PSoC5/LCD_Char_1_BarGraph.c **** * Return:
  55:.\Generated_Source\PSoC5/LCD_Char_1_BarGraph.c **** *  None.
  56:.\Generated_Source\PSoC5/LCD_Char_1_BarGraph.c **** *
  57:.\Generated_Source\PSoC5/LCD_Char_1_BarGraph.c **** * Theory:
  58:.\Generated_Source\PSoC5/LCD_Char_1_BarGraph.c **** *  Prior to using this function user need to import the pointer to custom
  59:.\Generated_Source\PSoC5/LCD_Char_1_BarGraph.c **** *  font array to your project by writting the following in the source code file
  60:.\Generated_Source\PSoC5/LCD_Char_1_BarGraph.c **** *  where custom font will be used:
  61:.\Generated_Source\PSoC5/LCD_Char_1_BarGraph.c **** *       extern uint8 const CYCODE LCD_Char_customFonts[];
  62:.\Generated_Source\PSoC5/LCD_Char_1_BarGraph.c **** *  This function is not automatically called by the Start() routine and must be
  63:.\Generated_Source\PSoC5/LCD_Char_1_BarGraph.c **** *  called manually by the user.
  64:.\Generated_Source\PSoC5/LCD_Char_1_BarGraph.c **** *******************************************************************************/
  65:.\Generated_Source\PSoC5/LCD_Char_1_BarGraph.c **** void LCD_Char_1_LoadCustomFonts(uint8 const customData[]) 
  66:.\Generated_Source\PSoC5/LCD_Char_1_BarGraph.c **** {
  27              		.loc 1 66 0
  28              		.cfi_startproc
  29              		@ args = 0, pretend = 0, frame = 0
  30              		@ frame_needed = 0, uses_anonymous_args = 0
  31              	.LVL0:
  32 0000 38B5     		push	{r3, r4, r5, lr}
  33              		.cfi_def_cfa_offset 16
  34              		.cfi_offset 3, -16
  35              		.cfi_offset 4, -12
  36              		.cfi_offset 5, -8
  37              		.cfi_offset 14, -4
  38 0002 0546     		mov	r5, r0
  67:.\Generated_Source\PSoC5/LCD_Char_1_BarGraph.c ****     uint8 indexU8;
  68:.\Generated_Source\PSoC5/LCD_Char_1_BarGraph.c **** 
  69:.\Generated_Source\PSoC5/LCD_Char_1_BarGraph.c ****     LCD_Char_1_IsReady();
  39              		.loc 1 69 0
  40 0004 FFF7FEFF 		bl	LCD_Char_1_IsReady
  41              	.LVL1:
  70:.\Generated_Source\PSoC5/LCD_Char_1_BarGraph.c ****     /* Set starting address in the LCD Module */
  71:.\Generated_Source\PSoC5/LCD_Char_1_BarGraph.c ****     /* Optionally: Read the current address to restore at a later time */
  72:.\Generated_Source\PSoC5/LCD_Char_1_BarGraph.c ****     LCD_Char_1_WriteControl(LCD_Char_1_CGRAM_0);
  42              		.loc 1 72 0
ARM GAS  C:\Users\student\AppData\Local\Temp\ccR6LRar.s 			page 3


  43 0008 4020     		movs	r0, #64
  44 000a FFF7FEFF 		bl	LCD_Char_1_WriteControl
  45              	.LVL2:
  73:.\Generated_Source\PSoC5/LCD_Char_1_BarGraph.c **** 
  74:.\Generated_Source\PSoC5/LCD_Char_1_BarGraph.c ****     /* Load in the 64 bytes of CustomChar Data */
  75:.\Generated_Source\PSoC5/LCD_Char_1_BarGraph.c ****     for(indexU8 = 0u; indexU8 < LCD_Char_1_CUSTOM_CHAR_SET_LEN; indexU8++)
  46              		.loc 1 75 0
  47 000e 0024     		movs	r4, #0
  48 0010 04E0     		b	.L2
  49              	.LVL3:
  50              	.L3:
  76:.\Generated_Source\PSoC5/LCD_Char_1_BarGraph.c ****     {
  77:.\Generated_Source\PSoC5/LCD_Char_1_BarGraph.c ****         /* Delay between each write */
  78:.\Generated_Source\PSoC5/LCD_Char_1_BarGraph.c ****         LCD_Char_1_WriteData(customData[indexU8]);
  51              		.loc 1 78 0 discriminator 3
  52 0012 285D     		ldrb	r0, [r5, r4]	@ zero_extendqisi2
  53 0014 FFF7FEFF 		bl	LCD_Char_1_WriteData
  54              	.LVL4:
  75:.\Generated_Source\PSoC5/LCD_Char_1_BarGraph.c ****     {
  55              		.loc 1 75 0 discriminator 3
  56 0018 0134     		adds	r4, r4, #1
  57              	.LVL5:
  58 001a E4B2     		uxtb	r4, r4
  59              	.LVL6:
  60              	.L2:
  75:.\Generated_Source\PSoC5/LCD_Char_1_BarGraph.c ****     {
  61              		.loc 1 75 0 is_stmt 0 discriminator 1
  62 001c 3F2C     		cmp	r4, #63
  63 001e F8D9     		bls	.L3
  79:.\Generated_Source\PSoC5/LCD_Char_1_BarGraph.c ****     }
  80:.\Generated_Source\PSoC5/LCD_Char_1_BarGraph.c **** 
  81:.\Generated_Source\PSoC5/LCD_Char_1_BarGraph.c ****     LCD_Char_1_IsReady();
  64              		.loc 1 81 0 is_stmt 1
  65 0020 FFF7FEFF 		bl	LCD_Char_1_IsReady
  66              	.LVL7:
  82:.\Generated_Source\PSoC5/LCD_Char_1_BarGraph.c ****     LCD_Char_1_WriteControl(LCD_Char_1_DDRAM_0);
  67              		.loc 1 82 0
  68 0024 8020     		movs	r0, #128
  69 0026 FFF7FEFF 		bl	LCD_Char_1_WriteControl
  70              	.LVL8:
  71 002a 38BD     		pop	{r3, r4, r5, pc}
  72              		.cfi_endproc
  73              	.LFE0:
  74              		.size	LCD_Char_1_LoadCustomFonts, .-LCD_Char_1_LoadCustomFonts
  75              		.section	.text.LCD_Char_1_DrawVerticalBG,"ax",%progbits
  76              		.align	2
  77              		.global	LCD_Char_1_DrawVerticalBG
  78              		.thumb
  79              		.thumb_func
  80              		.type	LCD_Char_1_DrawVerticalBG, %function
  81              	LCD_Char_1_DrawVerticalBG:
  82              	.LFB1:
  83:.\Generated_Source\PSoC5/LCD_Char_1_BarGraph.c **** }
  84:.\Generated_Source\PSoC5/LCD_Char_1_BarGraph.c **** 
  85:.\Generated_Source\PSoC5/LCD_Char_1_BarGraph.c **** 
  86:.\Generated_Source\PSoC5/LCD_Char_1_BarGraph.c **** #if (LCD_Char_1_CUSTOM_CHAR_SET == LCD_Char_1_HORIZONTAL_BG)
  87:.\Generated_Source\PSoC5/LCD_Char_1_BarGraph.c **** 
ARM GAS  C:\Users\student\AppData\Local\Temp\ccR6LRar.s 			page 4


  88:.\Generated_Source\PSoC5/LCD_Char_1_BarGraph.c ****     /*******************************************************************************
  89:.\Generated_Source\PSoC5/LCD_Char_1_BarGraph.c ****     * Function Name: LCD_Char_1_DrawHorizontalBG
  90:.\Generated_Source\PSoC5/LCD_Char_1_BarGraph.c ****     ********************************************************************************
  91:.\Generated_Source\PSoC5/LCD_Char_1_BarGraph.c ****     *
  92:.\Generated_Source\PSoC5/LCD_Char_1_BarGraph.c ****     * Summary:
  93:.\Generated_Source\PSoC5/LCD_Char_1_BarGraph.c ****     *  Draws the horizontal bargraph.
  94:.\Generated_Source\PSoC5/LCD_Char_1_BarGraph.c ****     *
  95:.\Generated_Source\PSoC5/LCD_Char_1_BarGraph.c ****     * Parameters:
  96:.\Generated_Source\PSoC5/LCD_Char_1_BarGraph.c ****     *  row:            The row in which the bar graph starts.
  97:.\Generated_Source\PSoC5/LCD_Char_1_BarGraph.c ****     *  column:         The column in which the bar graph starts.
  98:.\Generated_Source\PSoC5/LCD_Char_1_BarGraph.c ****     *  maxCharacters:  The max length of the graph in whole characters.
  99:.\Generated_Source\PSoC5/LCD_Char_1_BarGraph.c ****     *  value:          The current length or height of the graph in pixels.
 100:.\Generated_Source\PSoC5/LCD_Char_1_BarGraph.c ****     *
 101:.\Generated_Source\PSoC5/LCD_Char_1_BarGraph.c ****     * Return:
 102:.\Generated_Source\PSoC5/LCD_Char_1_BarGraph.c ****     *  void.
 103:.\Generated_Source\PSoC5/LCD_Char_1_BarGraph.c ****     *
 104:.\Generated_Source\PSoC5/LCD_Char_1_BarGraph.c ****     *******************************************************************************/
 105:.\Generated_Source\PSoC5/LCD_Char_1_BarGraph.c ****     void LCD_Char_1_DrawHorizontalBG(uint8 row, uint8 column, uint8 maxCharacters, uint8 value) \
 106:.\Generated_Source\PSoC5/LCD_Char_1_BarGraph.c ****                                                             
 107:.\Generated_Source\PSoC5/LCD_Char_1_BarGraph.c ****     {
 108:.\Generated_Source\PSoC5/LCD_Char_1_BarGraph.c ****         /* 8-bit Counter */
 109:.\Generated_Source\PSoC5/LCD_Char_1_BarGraph.c ****         uint8 count8;
 110:.\Generated_Source\PSoC5/LCD_Char_1_BarGraph.c ****         uint8 fullChars;
 111:.\Generated_Source\PSoC5/LCD_Char_1_BarGraph.c ****         uint8 remainingPixels;
 112:.\Generated_Source\PSoC5/LCD_Char_1_BarGraph.c **** 
 113:.\Generated_Source\PSoC5/LCD_Char_1_BarGraph.c ****         /* Number of full characters to draw */
 114:.\Generated_Source\PSoC5/LCD_Char_1_BarGraph.c ****         fullChars = value / LCD_Char_1_CHARACTER_WIDTH;
 115:.\Generated_Source\PSoC5/LCD_Char_1_BarGraph.c **** 
 116:.\Generated_Source\PSoC5/LCD_Char_1_BarGraph.c ****         /* Number of remaining pixels to draw */
 117:.\Generated_Source\PSoC5/LCD_Char_1_BarGraph.c ****         remainingPixels = value % LCD_Char_1_CHARACTER_WIDTH;
 118:.\Generated_Source\PSoC5/LCD_Char_1_BarGraph.c **** 
 119:.\Generated_Source\PSoC5/LCD_Char_1_BarGraph.c ****         /* Ensure that the maximum character limit is followed. */
 120:.\Generated_Source\PSoC5/LCD_Char_1_BarGraph.c ****         if(fullChars >= maxCharacters)
 121:.\Generated_Source\PSoC5/LCD_Char_1_BarGraph.c ****         {
 122:.\Generated_Source\PSoC5/LCD_Char_1_BarGraph.c ****             fullChars = maxCharacters;
 123:.\Generated_Source\PSoC5/LCD_Char_1_BarGraph.c ****         }
 124:.\Generated_Source\PSoC5/LCD_Char_1_BarGraph.c **** 
 125:.\Generated_Source\PSoC5/LCD_Char_1_BarGraph.c ****         /* Put Cursor at start position */
 126:.\Generated_Source\PSoC5/LCD_Char_1_BarGraph.c ****         LCD_Char_1_Position(row, column);
 127:.\Generated_Source\PSoC5/LCD_Char_1_BarGraph.c **** 
 128:.\Generated_Source\PSoC5/LCD_Char_1_BarGraph.c ****         /* Write full characters */
 129:.\Generated_Source\PSoC5/LCD_Char_1_BarGraph.c ****         for(count8 = 0u; count8 < fullChars; count8++)
 130:.\Generated_Source\PSoC5/LCD_Char_1_BarGraph.c ****         {
 131:.\Generated_Source\PSoC5/LCD_Char_1_BarGraph.c ****             LCD_Char_1_WriteData(LCD_Char_1_CUSTOM_5);
 132:.\Generated_Source\PSoC5/LCD_Char_1_BarGraph.c ****         }
 133:.\Generated_Source\PSoC5/LCD_Char_1_BarGraph.c **** 
 134:.\Generated_Source\PSoC5/LCD_Char_1_BarGraph.c ****         if(fullChars < maxCharacters)
 135:.\Generated_Source\PSoC5/LCD_Char_1_BarGraph.c ****         {
 136:.\Generated_Source\PSoC5/LCD_Char_1_BarGraph.c ****             /* Write remaining pixels */
 137:.\Generated_Source\PSoC5/LCD_Char_1_BarGraph.c ****             LCD_Char_1_WriteData(remainingPixels);
 138:.\Generated_Source\PSoC5/LCD_Char_1_BarGraph.c **** 
 139:.\Generated_Source\PSoC5/LCD_Char_1_BarGraph.c ****             if(fullChars < (maxCharacters - 1u))
 140:.\Generated_Source\PSoC5/LCD_Char_1_BarGraph.c ****             {
 141:.\Generated_Source\PSoC5/LCD_Char_1_BarGraph.c ****                 /* Fill with whitespace to end of bar graph */
 142:.\Generated_Source\PSoC5/LCD_Char_1_BarGraph.c ****                 for(count8 = 0u; count8 < (maxCharacters - fullChars - 1u); count8++)
 143:.\Generated_Source\PSoC5/LCD_Char_1_BarGraph.c ****                 {
 144:.\Generated_Source\PSoC5/LCD_Char_1_BarGraph.c ****                     LCD_Char_1_WriteData(LCD_Char_1_CUSTOM_0);
ARM GAS  C:\Users\student\AppData\Local\Temp\ccR6LRar.s 			page 5


 145:.\Generated_Source\PSoC5/LCD_Char_1_BarGraph.c ****                 }
 146:.\Generated_Source\PSoC5/LCD_Char_1_BarGraph.c ****             }
 147:.\Generated_Source\PSoC5/LCD_Char_1_BarGraph.c ****         }
 148:.\Generated_Source\PSoC5/LCD_Char_1_BarGraph.c ****     }
 149:.\Generated_Source\PSoC5/LCD_Char_1_BarGraph.c **** 
 150:.\Generated_Source\PSoC5/LCD_Char_1_BarGraph.c **** #endif /* LCD_Char_1_CUSTOM_CHAR_SET == LCD_Char_1_HORIZONTAL_BG */
 151:.\Generated_Source\PSoC5/LCD_Char_1_BarGraph.c **** 
 152:.\Generated_Source\PSoC5/LCD_Char_1_BarGraph.c **** 
 153:.\Generated_Source\PSoC5/LCD_Char_1_BarGraph.c **** #if (LCD_Char_1_CUSTOM_CHAR_SET == LCD_Char_1_VERTICAL_BG)
 154:.\Generated_Source\PSoC5/LCD_Char_1_BarGraph.c **** 
 155:.\Generated_Source\PSoC5/LCD_Char_1_BarGraph.c ****     /*******************************************************************************
 156:.\Generated_Source\PSoC5/LCD_Char_1_BarGraph.c ****     *  Function Name: LCD_Char_1_DrawVerticalBG
 157:.\Generated_Source\PSoC5/LCD_Char_1_BarGraph.c ****     ********************************************************************************
 158:.\Generated_Source\PSoC5/LCD_Char_1_BarGraph.c ****     *
 159:.\Generated_Source\PSoC5/LCD_Char_1_BarGraph.c ****     * Summary:
 160:.\Generated_Source\PSoC5/LCD_Char_1_BarGraph.c ****     *  Draws the vertical bargraph.
 161:.\Generated_Source\PSoC5/LCD_Char_1_BarGraph.c ****     *
 162:.\Generated_Source\PSoC5/LCD_Char_1_BarGraph.c ****     * Parameters:
 163:.\Generated_Source\PSoC5/LCD_Char_1_BarGraph.c ****     *  row:            The row in which the bar graph starts.
 164:.\Generated_Source\PSoC5/LCD_Char_1_BarGraph.c ****     *  column:         The column in which the bar graph starts.
 165:.\Generated_Source\PSoC5/LCD_Char_1_BarGraph.c ****     *  maxCharacters:  The max height of the graph in whole characters.
 166:.\Generated_Source\PSoC5/LCD_Char_1_BarGraph.c ****     *  value:          The current length or height of the graph in pixels.
 167:.\Generated_Source\PSoC5/LCD_Char_1_BarGraph.c ****     *
 168:.\Generated_Source\PSoC5/LCD_Char_1_BarGraph.c ****     * Return:
 169:.\Generated_Source\PSoC5/LCD_Char_1_BarGraph.c ****     *  void.
 170:.\Generated_Source\PSoC5/LCD_Char_1_BarGraph.c ****     *
 171:.\Generated_Source\PSoC5/LCD_Char_1_BarGraph.c ****     *******************************************************************************/
 172:.\Generated_Source\PSoC5/LCD_Char_1_BarGraph.c ****     void LCD_Char_1_DrawVerticalBG(uint8 row, uint8 column, uint8 maxCharacters, uint8 value) \
 173:.\Generated_Source\PSoC5/LCD_Char_1_BarGraph.c ****                                                             
 174:.\Generated_Source\PSoC5/LCD_Char_1_BarGraph.c ****     {
  83              		.loc 1 174 0
  84              		.cfi_startproc
  85              		@ args = 0, pretend = 0, frame = 0
  86              		@ frame_needed = 0, uses_anonymous_args = 0
  87              	.LVL9:
  88 0000 2DE9F843 		push	{r3, r4, r5, r6, r7, r8, r9, lr}
  89              		.cfi_def_cfa_offset 32
  90              		.cfi_offset 3, -32
  91              		.cfi_offset 4, -28
  92              		.cfi_offset 5, -24
  93              		.cfi_offset 6, -20
  94              		.cfi_offset 7, -16
  95              		.cfi_offset 8, -12
  96              		.cfi_offset 9, -8
  97              		.cfi_offset 14, -4
  98 0004 0546     		mov	r5, r0
  99 0006 0F46     		mov	r7, r1
 100 0008 9046     		mov	r8, r2
 101              	.LVL10:
 175:.\Generated_Source\PSoC5/LCD_Char_1_BarGraph.c ****         /* 8-bit Counter */
 176:.\Generated_Source\PSoC5/LCD_Char_1_BarGraph.c ****         uint8 count8 = 0u;
 177:.\Generated_Source\PSoC5/LCD_Char_1_BarGraph.c ****         /* Current Row Tracker */
 178:.\Generated_Source\PSoC5/LCD_Char_1_BarGraph.c ****         int8 currentRow;
 179:.\Generated_Source\PSoC5/LCD_Char_1_BarGraph.c ****         uint8 fullChars;
 180:.\Generated_Source\PSoC5/LCD_Char_1_BarGraph.c ****         uint8 remainingPixels;
 181:.\Generated_Source\PSoC5/LCD_Char_1_BarGraph.c **** 
 182:.\Generated_Source\PSoC5/LCD_Char_1_BarGraph.c ****         /* Number of full characters to draw */
ARM GAS  C:\Users\student\AppData\Local\Temp\ccR6LRar.s 			page 6


 183:.\Generated_Source\PSoC5/LCD_Char_1_BarGraph.c ****         fullChars = value / LCD_Char_1_CHARACTER_HEIGHT;
 102              		.loc 1 183 0
 103 000a DE08     		lsrs	r6, r3, #3
 104              	.LVL11:
 184:.\Generated_Source\PSoC5/LCD_Char_1_BarGraph.c **** 
 185:.\Generated_Source\PSoC5/LCD_Char_1_BarGraph.c ****         /* Number of remaining pixels to draw */
 186:.\Generated_Source\PSoC5/LCD_Char_1_BarGraph.c ****         remainingPixels = value % LCD_Char_1_CHARACTER_HEIGHT;
 105              		.loc 1 186 0
 106 000c 03F00709 		and	r9, r3, #7
 107              	.LVL12:
 187:.\Generated_Source\PSoC5/LCD_Char_1_BarGraph.c **** 
 188:.\Generated_Source\PSoC5/LCD_Char_1_BarGraph.c ****         /* Put Cursor at start position */
 189:.\Generated_Source\PSoC5/LCD_Char_1_BarGraph.c ****         LCD_Char_1_Position(row, column);
 108              		.loc 1 189 0
 109 0010 FFF7FEFF 		bl	LCD_Char_1_Position
 110              	.LVL13:
 190:.\Generated_Source\PSoC5/LCD_Char_1_BarGraph.c **** 
 191:.\Generated_Source\PSoC5/LCD_Char_1_BarGraph.c ****         /* Make sure the bar graph fits inside the space allotted */
 192:.\Generated_Source\PSoC5/LCD_Char_1_BarGraph.c ****         if(fullChars >= maxCharacters)
 111              		.loc 1 192 0
 112 0014 4645     		cmp	r6, r8
 113 0016 00D3     		bcc	.L6
 193:.\Generated_Source\PSoC5/LCD_Char_1_BarGraph.c ****         {
 194:.\Generated_Source\PSoC5/LCD_Char_1_BarGraph.c ****             fullChars = maxCharacters;
 114              		.loc 1 194 0
 115 0018 4646     		mov	r6, r8
 116              	.LVL14:
 117              	.L6:
 118 001a 0024     		movs	r4, #0
 119 001c 0EE0     		b	.L7
 120              	.LVL15:
 121              	.L9:
 195:.\Generated_Source\PSoC5/LCD_Char_1_BarGraph.c ****         }
 196:.\Generated_Source\PSoC5/LCD_Char_1_BarGraph.c **** 
 197:.\Generated_Source\PSoC5/LCD_Char_1_BarGraph.c ****         /*  Write full characters */
 198:.\Generated_Source\PSoC5/LCD_Char_1_BarGraph.c ****         while(count8 < fullChars)
 199:.\Generated_Source\PSoC5/LCD_Char_1_BarGraph.c ****         {
 200:.\Generated_Source\PSoC5/LCD_Char_1_BarGraph.c ****             LCD_Char_1_WriteData(LCD_Char_1_CUSTOM_7);
 122              		.loc 1 200 0
 123 001e 0720     		movs	r0, #7
 124 0020 FFF7FEFF 		bl	LCD_Char_1_WriteData
 125              	.LVL16:
 201:.\Generated_Source\PSoC5/LCD_Char_1_BarGraph.c **** 
 202:.\Generated_Source\PSoC5/LCD_Char_1_BarGraph.c ****             count8++;
 126              		.loc 1 202 0
 127 0024 0134     		adds	r4, r4, #1
 128              	.LVL17:
 129 0026 E4B2     		uxtb	r4, r4
 130              	.LVL18:
 203:.\Generated_Source\PSoC5/LCD_Char_1_BarGraph.c **** 
 204:.\Generated_Source\PSoC5/LCD_Char_1_BarGraph.c ****             /* Each pass through, move one row higher */
 205:.\Generated_Source\PSoC5/LCD_Char_1_BarGraph.c ****             if((((int8) row) - ((int8) count8)) >= 0)
 131              		.loc 1 205 0
 132 0028 6AB2     		sxtb	r2, r5
 133 002a 63B2     		sxtb	r3, r4
 134 002c D21A     		subs	r2, r2, r3
 135 002e 002A     		cmp	r2, #0
ARM GAS  C:\Users\student\AppData\Local\Temp\ccR6LRar.s 			page 7


 136 0030 06DB     		blt	.L8
 206:.\Generated_Source\PSoC5/LCD_Char_1_BarGraph.c ****             {
 207:.\Generated_Source\PSoC5/LCD_Char_1_BarGraph.c ****                 LCD_Char_1_Position(row - count8, column);
 137              		.loc 1 207 0
 138 0032 281B     		subs	r0, r5, r4
 139 0034 C0B2     		uxtb	r0, r0
 140 0036 3946     		mov	r1, r7
 141 0038 FFF7FEFF 		bl	LCD_Char_1_Position
 142              	.LVL19:
 143              	.L7:
 198:.\Generated_Source\PSoC5/LCD_Char_1_BarGraph.c ****         {
 144              		.loc 1 198 0
 145 003c B442     		cmp	r4, r6
 146 003e EED3     		bcc	.L9
 147              	.L8:
 208:.\Generated_Source\PSoC5/LCD_Char_1_BarGraph.c ****             }
 209:.\Generated_Source\PSoC5/LCD_Char_1_BarGraph.c ****             else
 210:.\Generated_Source\PSoC5/LCD_Char_1_BarGraph.c ****             {
 211:.\Generated_Source\PSoC5/LCD_Char_1_BarGraph.c ****                 break;
 212:.\Generated_Source\PSoC5/LCD_Char_1_BarGraph.c ****             }
 213:.\Generated_Source\PSoC5/LCD_Char_1_BarGraph.c ****         }
 214:.\Generated_Source\PSoC5/LCD_Char_1_BarGraph.c **** 
 215:.\Generated_Source\PSoC5/LCD_Char_1_BarGraph.c ****         if(((((int8) row) - ((int8) count8)) >= 0) && (fullChars < maxCharacters))
 148              		.loc 1 215 0
 149 0040 6BB2     		sxtb	r3, r5
 150 0042 62B2     		sxtb	r2, r4
 151 0044 9B1A     		subs	r3, r3, r2
 152 0046 002B     		cmp	r3, #0
 153 0048 28DB     		blt	.L5
 154              		.loc 1 215 0 is_stmt 0 discriminator 1
 155 004a B045     		cmp	r8, r6
 156 004c 26D9     		bls	.L5
 216:.\Generated_Source\PSoC5/LCD_Char_1_BarGraph.c ****         {
 217:.\Generated_Source\PSoC5/LCD_Char_1_BarGraph.c ****             /* Write remaining pixels */
 218:.\Generated_Source\PSoC5/LCD_Char_1_BarGraph.c ****             if(remainingPixels == 0u)
 157              		.loc 1 218 0 is_stmt 1
 158 004e B9F1000F 		cmp	r9, #0
 159 0052 03D1     		bne	.L11
 219:.\Generated_Source\PSoC5/LCD_Char_1_BarGraph.c ****             {
 220:.\Generated_Source\PSoC5/LCD_Char_1_BarGraph.c ****                 LCD_Char_1_WriteData((uint8) ' ');
 160              		.loc 1 220 0
 161 0054 2020     		movs	r0, #32
 162 0056 FFF7FEFF 		bl	LCD_Char_1_WriteData
 163              	.LVL20:
 164 005a 04E0     		b	.L12
 165              	.L11:
 221:.\Generated_Source\PSoC5/LCD_Char_1_BarGraph.c ****             }
 222:.\Generated_Source\PSoC5/LCD_Char_1_BarGraph.c ****             else
 223:.\Generated_Source\PSoC5/LCD_Char_1_BarGraph.c ****             {
 224:.\Generated_Source\PSoC5/LCD_Char_1_BarGraph.c ****                 LCD_Char_1_WriteData(remainingPixels - 1u);
 166              		.loc 1 224 0
 167 005c 09F1FF30 		add	r0, r9, #-1
 168 0060 C0B2     		uxtb	r0, r0
 169 0062 FFF7FEFF 		bl	LCD_Char_1_WriteData
 170              	.LVL21:
 171              	.L12:
 225:.\Generated_Source\PSoC5/LCD_Char_1_BarGraph.c ****             }
ARM GAS  C:\Users\student\AppData\Local\Temp\ccR6LRar.s 			page 8


 226:.\Generated_Source\PSoC5/LCD_Char_1_BarGraph.c **** 
 227:.\Generated_Source\PSoC5/LCD_Char_1_BarGraph.c ****             currentRow = ((int8) row) - ((int8) count8) - 1;
 172              		.loc 1 227 0
 173 0066 2C1B     		subs	r4, r5, r4
 174              	.LVL22:
 175 0068 013C     		subs	r4, r4, #1
 176 006a E4B2     		uxtb	r4, r4
 177              	.LVL23:
 228:.\Generated_Source\PSoC5/LCD_Char_1_BarGraph.c **** 
 229:.\Generated_Source\PSoC5/LCD_Char_1_BarGraph.c ****             if(currentRow >= 0)
 178              		.loc 1 229 0
 179 006c 14F0800F 		tst	r4, #128
 180 0070 0ED0     		beq	.L16
 181 0072 BDE8F883 		pop	{r3, r4, r5, r6, r7, r8, r9, pc}
 182              	.LVL24:
 183              	.L14:
 230:.\Generated_Source\PSoC5/LCD_Char_1_BarGraph.c ****             {
 231:.\Generated_Source\PSoC5/LCD_Char_1_BarGraph.c ****                 /* Move up one row and fill with whitespace till top of bar graph */
 232:.\Generated_Source\PSoC5/LCD_Char_1_BarGraph.c ****                 for(count8 = 0u; count8 < (maxCharacters - fullChars - 1u); count8++)
 233:.\Generated_Source\PSoC5/LCD_Char_1_BarGraph.c ****                 {
 234:.\Generated_Source\PSoC5/LCD_Char_1_BarGraph.c ****                     LCD_Char_1_Position((uint8)currentRow, column);
 184              		.loc 1 234 0 discriminator 3
 185 0076 E4B2     		uxtb	r4, r4
 186 0078 2046     		mov	r0, r4
 187 007a 3946     		mov	r1, r7
 188 007c FFF7FEFF 		bl	LCD_Char_1_Position
 189              	.LVL25:
 235:.\Generated_Source\PSoC5/LCD_Char_1_BarGraph.c ****                     LCD_Char_1_WriteData((uint8) ' ');
 190              		.loc 1 235 0 discriminator 3
 191 0080 2020     		movs	r0, #32
 192 0082 FFF7FEFF 		bl	LCD_Char_1_WriteData
 193              	.LVL26:
 236:.\Generated_Source\PSoC5/LCD_Char_1_BarGraph.c ****                     currentRow --;
 194              		.loc 1 236 0 discriminator 3
 195 0086 013C     		subs	r4, r4, #1
 196              	.LVL27:
 197 0088 E4B2     		uxtb	r4, r4
 198              	.LVL28:
 232:.\Generated_Source\PSoC5/LCD_Char_1_BarGraph.c ****                 {
 199              		.loc 1 232 0 discriminator 3
 200 008a 0135     		adds	r5, r5, #1
 201              	.LVL29:
 202 008c EDB2     		uxtb	r5, r5
 203              	.LVL30:
 204 008e 00E0     		b	.L13
 205              	.LVL31:
 206              	.L16:
 207 0090 0025     		movs	r5, #0
 208              	.L13:
 209              	.LVL32:
 232:.\Generated_Source\PSoC5/LCD_Char_1_BarGraph.c ****                 {
 210              		.loc 1 232 0 is_stmt 0 discriminator 1
 211 0092 C6EB0803 		rsb	r3, r6, r8
 212 0096 013B     		subs	r3, r3, #1
 213 0098 9D42     		cmp	r5, r3
 214 009a ECD3     		bcc	.L14
 215              	.LVL33:
ARM GAS  C:\Users\student\AppData\Local\Temp\ccR6LRar.s 			page 9


 216              	.L5:
 217 009c BDE8F883 		pop	{r3, r4, r5, r6, r7, r8, r9, pc}
 218              		.cfi_endproc
 219              	.LFE1:
 220              		.size	LCD_Char_1_DrawVerticalBG, .-LCD_Char_1_DrawVerticalBG
 221              		.global	LCD_Char_1_customFonts
 222              		.section	.rodata
 223              		.align	2
 224              		.type	LCD_Char_1_customFonts, %object
 225              		.size	LCD_Char_1_customFonts, 64
 226              	LCD_Char_1_customFonts:
 227 0000 00       		.byte	0
 228 0001 00       		.byte	0
 229 0002 00       		.byte	0
 230 0003 00       		.byte	0
 231 0004 00       		.byte	0
 232 0005 00       		.byte	0
 233 0006 00       		.byte	0
 234 0007 1F       		.byte	31
 235 0008 00       		.byte	0
 236 0009 00       		.byte	0
 237 000a 00       		.byte	0
 238 000b 00       		.byte	0
 239 000c 00       		.byte	0
 240 000d 00       		.byte	0
 241 000e 1F       		.byte	31
 242 000f 1F       		.byte	31
 243 0010 00       		.byte	0
 244 0011 00       		.byte	0
 245 0012 00       		.byte	0
 246 0013 00       		.byte	0
 247 0014 00       		.byte	0
 248 0015 1F       		.byte	31
 249 0016 1F       		.byte	31
 250 0017 1F       		.byte	31
 251 0018 00       		.byte	0
 252 0019 00       		.byte	0
 253 001a 00       		.byte	0
 254 001b 00       		.byte	0
 255 001c 1F       		.byte	31
 256 001d 1F       		.byte	31
 257 001e 1F       		.byte	31
 258 001f 1F       		.byte	31
 259 0020 00       		.byte	0
 260 0021 00       		.byte	0
 261 0022 00       		.byte	0
 262 0023 1F       		.byte	31
 263 0024 1F       		.byte	31
 264 0025 1F       		.byte	31
 265 0026 1F       		.byte	31
 266 0027 1F       		.byte	31
 267 0028 00       		.byte	0
 268 0029 00       		.byte	0
 269 002a 1F       		.byte	31
 270 002b 1F       		.byte	31
 271 002c 1F       		.byte	31
 272 002d 1F       		.byte	31
ARM GAS  C:\Users\student\AppData\Local\Temp\ccR6LRar.s 			page 10


 273 002e 1F       		.byte	31
 274 002f 1F       		.byte	31
 275 0030 00       		.byte	0
 276 0031 1F       		.byte	31
 277 0032 1F       		.byte	31
 278 0033 1F       		.byte	31
 279 0034 1F       		.byte	31
 280 0035 1F       		.byte	31
 281 0036 1F       		.byte	31
 282 0037 1F       		.byte	31
 283 0038 1F       		.byte	31
 284 0039 1F       		.byte	31
 285 003a 1F       		.byte	31
 286 003b 1F       		.byte	31
 287 003c 1F       		.byte	31
 288 003d 1F       		.byte	31
 289 003e 1F       		.byte	31
 290 003f 1F       		.byte	31
 291              		.text
 292              	.Letext0:
 293              		.file 2 ".\\Generated_Source\\PSoC5\\cytypes.h"
 294              		.file 3 ".\\Generated_Source\\PSoC5\\LCD_Char_1.h"